ARM GAS  C:\Users\SUZUKI~1\AppData\Local\Temp\cc5iwTlG.s 			page 1


   1              		.syntax unified
   2              		.cpu cortex-m3
   3              		.fpu softvfp
   4              		.eabi_attribute 20, 1
   5              		.eabi_attribute 21, 1
   6              		.eabi_attribute 23, 3
   7              		.eabi_attribute 24, 1
   8              		.eabi_attribute 25, 1
   9              		.eabi_attribute 26, 1
  10              		.eabi_attribute 30, 1
  11              		.eabi_attribute 34, 1
  12              		.eabi_attribute 18, 4
  13              		.thumb
  14              		.file	"ADC.c"
  15              		.text
  16              	.Ltext0:
  17              		.cfi_sections	.debug_frame
  18              		.section	.text.ADC_CalcGain,"ax",%progbits
  19              		.align	2
  20              		.thumb
  21              		.thumb_func
  22              		.type	ADC_CalcGain, %function
  23              	ADC_CalcGain:
  24              	.LFB12:
  25              		.file 1 ".\\Generated_Source\\PSoC5\\ADC.c"
   1:.\Generated_Source\PSoC5/ADC.c **** /*******************************************************************************
   2:.\Generated_Source\PSoC5/ADC.c **** * File Name: ADC.c
   3:.\Generated_Source\PSoC5/ADC.c **** * Version 3.0
   4:.\Generated_Source\PSoC5/ADC.c **** *
   5:.\Generated_Source\PSoC5/ADC.c **** * Description:
   6:.\Generated_Source\PSoC5/ADC.c **** *  This file provides the source code to the API for the Successive
   7:.\Generated_Source\PSoC5/ADC.c **** *  approximation ADC Component.
   8:.\Generated_Source\PSoC5/ADC.c **** *
   9:.\Generated_Source\PSoC5/ADC.c **** * Note:
  10:.\Generated_Source\PSoC5/ADC.c **** *
  11:.\Generated_Source\PSoC5/ADC.c **** ********************************************************************************
  12:.\Generated_Source\PSoC5/ADC.c **** * Copyright 2008-2015, Cypress Semiconductor Corporation.  All rights reserved.
  13:.\Generated_Source\PSoC5/ADC.c **** * You may use this file only in accordance with the license, terms, conditions,
  14:.\Generated_Source\PSoC5/ADC.c **** * disclaimers, and limitations in the end user license agreement accompanying
  15:.\Generated_Source\PSoC5/ADC.c **** * the software package with which this file was provided.
  16:.\Generated_Source\PSoC5/ADC.c **** *******************************************************************************/
  17:.\Generated_Source\PSoC5/ADC.c **** 
  18:.\Generated_Source\PSoC5/ADC.c **** #include "CyLib.h"
  19:.\Generated_Source\PSoC5/ADC.c **** #include "ADC.h"
  20:.\Generated_Source\PSoC5/ADC.c **** 
  21:.\Generated_Source\PSoC5/ADC.c **** #if(ADC_DEFAULT_INTERNAL_CLK)
  22:.\Generated_Source\PSoC5/ADC.c ****     #include "ADC_theACLK.h"
  23:.\Generated_Source\PSoC5/ADC.c **** #endif /* End ADC_DEFAULT_INTERNAL_CLK */
  24:.\Generated_Source\PSoC5/ADC.c **** 
  25:.\Generated_Source\PSoC5/ADC.c **** 
  26:.\Generated_Source\PSoC5/ADC.c **** /***************************************
  27:.\Generated_Source\PSoC5/ADC.c **** * Forward function references
  28:.\Generated_Source\PSoC5/ADC.c **** ***************************************/
  29:.\Generated_Source\PSoC5/ADC.c **** static void ADC_CalcGain(uint8 resolution);
  30:.\Generated_Source\PSoC5/ADC.c **** 
  31:.\Generated_Source\PSoC5/ADC.c **** 
  32:.\Generated_Source\PSoC5/ADC.c **** /***************************************
ARM GAS  C:\Users\SUZUKI~1\AppData\Local\Temp\cc5iwTlG.s 			page 2


  33:.\Generated_Source\PSoC5/ADC.c **** * Global data allocation
  34:.\Generated_Source\PSoC5/ADC.c **** ***************************************/
  35:.\Generated_Source\PSoC5/ADC.c **** uint8 ADC_initVar = 0u;
  36:.\Generated_Source\PSoC5/ADC.c **** volatile int16 ADC_offset;
  37:.\Generated_Source\PSoC5/ADC.c **** volatile int16 ADC_countsPerVolt;     /* Obsolete Gain compensation */
  38:.\Generated_Source\PSoC5/ADC.c **** volatile int32 ADC_countsPer10Volt;   /* Gain compensation */
  39:.\Generated_Source\PSoC5/ADC.c **** volatile int16 ADC_shift;
  40:.\Generated_Source\PSoC5/ADC.c **** 
  41:.\Generated_Source\PSoC5/ADC.c **** 
  42:.\Generated_Source\PSoC5/ADC.c **** /*******************************************************************************
  43:.\Generated_Source\PSoC5/ADC.c **** * Function Name: ADC_Start
  44:.\Generated_Source\PSoC5/ADC.c **** ********************************************************************************
  45:.\Generated_Source\PSoC5/ADC.c **** *
  46:.\Generated_Source\PSoC5/ADC.c **** * Summary:
  47:.\Generated_Source\PSoC5/ADC.c **** *  This is the preferred method to begin component operation.
  48:.\Generated_Source\PSoC5/ADC.c **** *  ADC_Start() sets the initVar variable, calls the
  49:.\Generated_Source\PSoC5/ADC.c **** *  ADC_Init() function, and then calls the
  50:.\Generated_Source\PSoC5/ADC.c **** *  ADC_Enable() function.
  51:.\Generated_Source\PSoC5/ADC.c **** *
  52:.\Generated_Source\PSoC5/ADC.c **** * Parameters:
  53:.\Generated_Source\PSoC5/ADC.c **** *  None.
  54:.\Generated_Source\PSoC5/ADC.c **** *
  55:.\Generated_Source\PSoC5/ADC.c **** * Return:
  56:.\Generated_Source\PSoC5/ADC.c **** *  None.
  57:.\Generated_Source\PSoC5/ADC.c **** *
  58:.\Generated_Source\PSoC5/ADC.c **** * Global variables:
  59:.\Generated_Source\PSoC5/ADC.c **** *  The ADC_initVar variable is used to indicate when/if initial
  60:.\Generated_Source\PSoC5/ADC.c **** *  configuration of this component has happened. The variable is initialized to
  61:.\Generated_Source\PSoC5/ADC.c **** *  zero and set to 1 the first time ADC_Start() is called. This allows for
  62:.\Generated_Source\PSoC5/ADC.c **** *  component Re-Start without re-initialization in all subsequent calls to the
  63:.\Generated_Source\PSoC5/ADC.c **** *  ADC_Start() routine.
  64:.\Generated_Source\PSoC5/ADC.c **** *  If re-initialization of the component is required the variable should be set
  65:.\Generated_Source\PSoC5/ADC.c **** *  to zero before call of ADC_Start() routine, or the user may call
  66:.\Generated_Source\PSoC5/ADC.c **** *  ADC_Init() and ADC_Enable() as done in the
  67:.\Generated_Source\PSoC5/ADC.c **** *  ADC_Start() routine.
  68:.\Generated_Source\PSoC5/ADC.c **** *
  69:.\Generated_Source\PSoC5/ADC.c **** * Side Effect:
  70:.\Generated_Source\PSoC5/ADC.c **** *  If the initVar variable is already set, this function only calls the
  71:.\Generated_Source\PSoC5/ADC.c **** *  ADC_Enable() function.
  72:.\Generated_Source\PSoC5/ADC.c **** *
  73:.\Generated_Source\PSoC5/ADC.c **** *******************************************************************************/
  74:.\Generated_Source\PSoC5/ADC.c **** void ADC_Start(void)
  75:.\Generated_Source\PSoC5/ADC.c **** {
  76:.\Generated_Source\PSoC5/ADC.c **** 
  77:.\Generated_Source\PSoC5/ADC.c ****     /* If not Initialized then initialize all required hardware and software */
  78:.\Generated_Source\PSoC5/ADC.c ****     if(ADC_initVar == 0u)
  79:.\Generated_Source\PSoC5/ADC.c ****     {
  80:.\Generated_Source\PSoC5/ADC.c ****         ADC_Init();
  81:.\Generated_Source\PSoC5/ADC.c ****         ADC_initVar = 1u;
  82:.\Generated_Source\PSoC5/ADC.c ****     }
  83:.\Generated_Source\PSoC5/ADC.c ****     ADC_Enable();
  84:.\Generated_Source\PSoC5/ADC.c **** }
  85:.\Generated_Source\PSoC5/ADC.c **** 
  86:.\Generated_Source\PSoC5/ADC.c **** 
  87:.\Generated_Source\PSoC5/ADC.c **** /*******************************************************************************
  88:.\Generated_Source\PSoC5/ADC.c **** * Function Name: ADC_Init
  89:.\Generated_Source\PSoC5/ADC.c **** ********************************************************************************
ARM GAS  C:\Users\SUZUKI~1\AppData\Local\Temp\cc5iwTlG.s 			page 3


  90:.\Generated_Source\PSoC5/ADC.c **** *
  91:.\Generated_Source\PSoC5/ADC.c **** * Summary:
  92:.\Generated_Source\PSoC5/ADC.c **** *  Initialize component's parameters to the parameters set by user in the
  93:.\Generated_Source\PSoC5/ADC.c **** *  customizer of the component placed onto schematic. Usually called in
  94:.\Generated_Source\PSoC5/ADC.c **** *  ADC_Start().
  95:.\Generated_Source\PSoC5/ADC.c **** *
  96:.\Generated_Source\PSoC5/ADC.c **** * Parameters:
  97:.\Generated_Source\PSoC5/ADC.c **** *  None.
  98:.\Generated_Source\PSoC5/ADC.c **** *
  99:.\Generated_Source\PSoC5/ADC.c **** * Return:
 100:.\Generated_Source\PSoC5/ADC.c **** *  None.
 101:.\Generated_Source\PSoC5/ADC.c **** *
 102:.\Generated_Source\PSoC5/ADC.c **** * Global variables:
 103:.\Generated_Source\PSoC5/ADC.c **** *  The ADC_offset variable is initialized to 0.
 104:.\Generated_Source\PSoC5/ADC.c **** *
 105:.\Generated_Source\PSoC5/ADC.c **** *******************************************************************************/
 106:.\Generated_Source\PSoC5/ADC.c **** void ADC_Init(void)
 107:.\Generated_Source\PSoC5/ADC.c **** {
 108:.\Generated_Source\PSoC5/ADC.c **** 
 109:.\Generated_Source\PSoC5/ADC.c ****     /* This is only valid if there is an internal clock */
 110:.\Generated_Source\PSoC5/ADC.c ****     #if(ADC_DEFAULT_INTERNAL_CLK)
 111:.\Generated_Source\PSoC5/ADC.c ****         ADC_theACLK_SetMode(CYCLK_DUTY);
 112:.\Generated_Source\PSoC5/ADC.c ****     #endif /* End ADC_DEFAULT_INTERNAL_CLK */
 113:.\Generated_Source\PSoC5/ADC.c **** 
 114:.\Generated_Source\PSoC5/ADC.c ****     #if(ADC_IRQ_REMOVE == 0u)
 115:.\Generated_Source\PSoC5/ADC.c ****         /* Start and set interrupt vector */
 116:.\Generated_Source\PSoC5/ADC.c ****         CyIntSetPriority(ADC_INTC_NUMBER, ADC_INTC_PRIOR_NUMBER);
 117:.\Generated_Source\PSoC5/ADC.c ****         (void)CyIntSetVector(ADC_INTC_NUMBER, &ADC_ISR);
 118:.\Generated_Source\PSoC5/ADC.c ****     #endif   /* End ADC_IRQ_REMOVE */
 119:.\Generated_Source\PSoC5/ADC.c **** 
 120:.\Generated_Source\PSoC5/ADC.c ****     /* Enable IRQ mode*/
 121:.\Generated_Source\PSoC5/ADC.c ****     ADC_SAR_CSR1_REG |= ADC_SAR_IRQ_MASK_EN | ADC_SAR_IRQ_MODE_EDGE;
 122:.\Generated_Source\PSoC5/ADC.c **** 
 123:.\Generated_Source\PSoC5/ADC.c ****     /*Set SAR ADC resolution ADC */
 124:.\Generated_Source\PSoC5/ADC.c ****     ADC_SetResolution(ADC_DEFAULT_RESOLUTION);
 125:.\Generated_Source\PSoC5/ADC.c ****     ADC_offset = 0;
 126:.\Generated_Source\PSoC5/ADC.c **** }
 127:.\Generated_Source\PSoC5/ADC.c **** 
 128:.\Generated_Source\PSoC5/ADC.c **** 
 129:.\Generated_Source\PSoC5/ADC.c **** /*******************************************************************************
 130:.\Generated_Source\PSoC5/ADC.c **** * Function Name: ADC_Enable
 131:.\Generated_Source\PSoC5/ADC.c **** ********************************************************************************
 132:.\Generated_Source\PSoC5/ADC.c **** *
 133:.\Generated_Source\PSoC5/ADC.c **** * Summary:
 134:.\Generated_Source\PSoC5/ADC.c **** *  Enables the reference, clock and power for SAR ADC.
 135:.\Generated_Source\PSoC5/ADC.c **** *
 136:.\Generated_Source\PSoC5/ADC.c **** * Parameters:
 137:.\Generated_Source\PSoC5/ADC.c **** *  None.
 138:.\Generated_Source\PSoC5/ADC.c **** *
 139:.\Generated_Source\PSoC5/ADC.c **** * Return:
 140:.\Generated_Source\PSoC5/ADC.c **** *  None.
 141:.\Generated_Source\PSoC5/ADC.c **** *
 142:.\Generated_Source\PSoC5/ADC.c **** *******************************************************************************/
 143:.\Generated_Source\PSoC5/ADC.c **** void ADC_Enable(void)
 144:.\Generated_Source\PSoC5/ADC.c **** {
 145:.\Generated_Source\PSoC5/ADC.c ****     uint8 tmpReg;
 146:.\Generated_Source\PSoC5/ADC.c ****     uint8 enableInterrupts;
ARM GAS  C:\Users\SUZUKI~1\AppData\Local\Temp\cc5iwTlG.s 			page 4


 147:.\Generated_Source\PSoC5/ADC.c ****     enableInterrupts = CyEnterCriticalSection();
 148:.\Generated_Source\PSoC5/ADC.c **** 
 149:.\Generated_Source\PSoC5/ADC.c ****     /* Enable the SAR ADC block in Active Power Mode */
 150:.\Generated_Source\PSoC5/ADC.c ****     ADC_PWRMGR_SAR_REG |= ADC_ACT_PWR_SAR_EN;
 151:.\Generated_Source\PSoC5/ADC.c **** 
 152:.\Generated_Source\PSoC5/ADC.c ****      /* Enable the SAR ADC in Standby Power Mode*/
 153:.\Generated_Source\PSoC5/ADC.c ****     ADC_STBY_PWRMGR_SAR_REG |= ADC_STBY_PWR_SAR_EN;
 154:.\Generated_Source\PSoC5/ADC.c **** 
 155:.\Generated_Source\PSoC5/ADC.c ****     /* This is only valid if there is an internal clock */
 156:.\Generated_Source\PSoC5/ADC.c ****     #if(ADC_DEFAULT_INTERNAL_CLK)
 157:.\Generated_Source\PSoC5/ADC.c ****         ADC_PWRMGR_CLK_REG |= ADC_ACT_PWR_CLK_EN;
 158:.\Generated_Source\PSoC5/ADC.c ****         ADC_STBY_PWRMGR_CLK_REG |= ADC_STBY_PWR_CLK_EN;
 159:.\Generated_Source\PSoC5/ADC.c ****     #endif /* End ADC_DEFAULT_INTERNAL_CLK */
 160:.\Generated_Source\PSoC5/ADC.c **** 
 161:.\Generated_Source\PSoC5/ADC.c ****     /* Enable VCM buffer and Enable Int Ref Amp */
 162:.\Generated_Source\PSoC5/ADC.c ****     tmpReg = ADC_SAR_CSR3_REG;
 163:.\Generated_Source\PSoC5/ADC.c ****     tmpReg |= ADC_SAR_EN_BUF_VCM_EN;
 164:.\Generated_Source\PSoC5/ADC.c ****     /* PD_BUF_VREF is OFF in External reference or Vdda reference mode */
 165:.\Generated_Source\PSoC5/ADC.c ****     #if((ADC_DEFAULT_REFERENCE == ADC__EXT_REF) || \
 166:.\Generated_Source\PSoC5/ADC.c ****         (ADC_DEFAULT_RANGE == ADC__VNEG_VDDA_DIFF))
 167:.\Generated_Source\PSoC5/ADC.c ****         tmpReg &= (uint8)~ADC_SAR_EN_BUF_VREF_EN;
 168:.\Generated_Source\PSoC5/ADC.c ****     #else /* In INTREF or INTREF Bypassed this buffer is ON */
 169:.\Generated_Source\PSoC5/ADC.c ****         tmpReg |= ADC_SAR_EN_BUF_VREF_EN;
 170:.\Generated_Source\PSoC5/ADC.c ****     #endif /* ADC_DEFAULT_REFERENCE == ADC__EXT_REF */
 171:.\Generated_Source\PSoC5/ADC.c ****     ADC_SAR_CSR3_REG = tmpReg;
 172:.\Generated_Source\PSoC5/ADC.c **** 
 173:.\Generated_Source\PSoC5/ADC.c ****     /* Set reference for ADC */
 174:.\Generated_Source\PSoC5/ADC.c ****     #if(ADC_DEFAULT_RANGE == ADC__VNEG_VDDA_DIFF)
 175:.\Generated_Source\PSoC5/ADC.c ****         #if(ADC_DEFAULT_REFERENCE == ADC__EXT_REF)
 176:.\Generated_Source\PSoC5/ADC.c ****             ADC_SAR_CSR6_REG = ADC_INT_BYPASS_EXT_VREF; /* S2 */
 177:.\Generated_Source\PSoC5/ADC.c ****         #else /* Internal Vdda reference or obsolete bypass mode */
 178:.\Generated_Source\PSoC5/ADC.c ****             ADC_SAR_CSR6_REG = ADC_VDDA_VREF;           /* S7 */
 179:.\Generated_Source\PSoC5/ADC.c ****         #endif /* ADC_DEFAULT_REFERENCE == ADC__EXT_REF */
 180:.\Generated_Source\PSoC5/ADC.c ****     #else  /* Reference goes through internal buffer */
 181:.\Generated_Source\PSoC5/ADC.c ****         #if(ADC_DEFAULT_REFERENCE == ADC__INT_REF_NOT_BYPASSED)
 182:.\Generated_Source\PSoC5/ADC.c ****             ADC_SAR_CSR6_REG = ADC_INT_VREF;            /* S3 + S4 */
 183:.\Generated_Source\PSoC5/ADC.c ****         #else /* INTREF Bypassed of External */
 184:.\Generated_Source\PSoC5/ADC.c ****             ADC_SAR_CSR6_REG = ADC_INT_BYPASS_EXT_VREF; /* S2 */
 185:.\Generated_Source\PSoC5/ADC.c ****         #endif /* ADC_DEFAULT_REFERENCE == ADC__INT_REF_NOT_BYPASSED */
 186:.\Generated_Source\PSoC5/ADC.c ****     #endif /* VNEG_VDDA_DIFF */
 187:.\Generated_Source\PSoC5/ADC.c **** 
 188:.\Generated_Source\PSoC5/ADC.c ****     /* Low non-overlap delay for sampling clock signals (for 1MSPS) */
 189:.\Generated_Source\PSoC5/ADC.c ****     #if(ADC_HIGH_POWER_PULSE == 0u) /* MinPulseWidth <= 50 ns */
 190:.\Generated_Source\PSoC5/ADC.c ****         ADC_SAR_CSR5_REG &= (uint8)~ADC_SAR_DLY_INC;
 191:.\Generated_Source\PSoC5/ADC.c ****     #else /* Set High non-overlap delay for sampling clock signals (for <500KSPS)*/
 192:.\Generated_Source\PSoC5/ADC.c ****         ADC_SAR_CSR5_REG |= ADC_SAR_DLY_INC;
 193:.\Generated_Source\PSoC5/ADC.c ****     #endif /* ADC_HIGH_POWER_PULSE == 0u */
 194:.\Generated_Source\PSoC5/ADC.c **** 
 195:.\Generated_Source\PSoC5/ADC.c ****     /* Increase comparator latch enable delay by 20%, 
 196:.\Generated_Source\PSoC5/ADC.c ****     *  Increase comparator bias current by 30% without impacting delaysDelay 
 197:.\Generated_Source\PSoC5/ADC.c ****     *  Default for 1MSPS) 
 198:.\Generated_Source\PSoC5/ADC.c ****     */
 199:.\Generated_Source\PSoC5/ADC.c ****     #if(ADC_HIGH_POWER_PULSE == 0u)    /* MinPulseWidth <= 50 ns */
 200:.\Generated_Source\PSoC5/ADC.c ****         ADC_SAR_CSR5_REG |= ADC_SAR_SEL_CSEL_DFT_CHAR;
 201:.\Generated_Source\PSoC5/ADC.c ****     #else /* for <500ksps */
 202:.\Generated_Source\PSoC5/ADC.c ****         ADC_SAR_CSR5_REG &= (uint8)~ADC_SAR_SEL_CSEL_DFT_CHAR;
 203:.\Generated_Source\PSoC5/ADC.c ****     #endif /* ADC_HIGH_POWER_PULSE == 0u */
ARM GAS  C:\Users\SUZUKI~1\AppData\Local\Temp\cc5iwTlG.s 			page 5


 204:.\Generated_Source\PSoC5/ADC.c **** 
 205:.\Generated_Source\PSoC5/ADC.c ****     /* Set default power and other configurations for control register 0 in multiple lines */
 206:.\Generated_Source\PSoC5/ADC.c ****     ADC_SAR_CSR0_REG = (uint8)((uint8)ADC_DEFAULT_POWER << ADC_SAR_POWER_SHIFT)
 207:.\Generated_Source\PSoC5/ADC.c ****     /* SAR_HIZ_CLEAR:   Should not be used for LP */
 208:.\Generated_Source\PSoC5/ADC.c ****     #if ((CY_PSOC5LP) || (ADC_DEFAULT_REFERENCE != ADC__EXT_REF))
 209:.\Generated_Source\PSoC5/ADC.c ****         | ADC_SAR_HIZ_CLEAR
 210:.\Generated_Source\PSoC5/ADC.c ****     #endif /* SAR_HIZ_CLEAR */
 211:.\Generated_Source\PSoC5/ADC.c ****     /*Set Convertion mode */
 212:.\Generated_Source\PSoC5/ADC.c ****     #if(ADC_DEFAULT_CONV_MODE != ADC__FREE_RUNNING)      /* If triggered mode */
 213:.\Generated_Source\PSoC5/ADC.c ****         | ADC_SAR_MX_SOF_UDB           /* source: UDB */
 214:.\Generated_Source\PSoC5/ADC.c ****         | ADC_SAR_SOF_MODE_EDGE        /* Set edge-sensitive sof source */
 215:.\Generated_Source\PSoC5/ADC.c ****     #endif /* ADC_DEFAULT_CONV_MODE */
 216:.\Generated_Source\PSoC5/ADC.c ****     ; /* end of multiple line initialization */
 217:.\Generated_Source\PSoC5/ADC.c **** 
 218:.\Generated_Source\PSoC5/ADC.c ****     ADC_SAR_TR0_REG = ADC_SAR_CAP_TRIM_2;
 219:.\Generated_Source\PSoC5/ADC.c **** 
 220:.\Generated_Source\PSoC5/ADC.c ****     /* Enable clock for SAR ADC*/
 221:.\Generated_Source\PSoC5/ADC.c ****     ADC_SAR_CLK_REG |= ADC_SAR_MX_CLK_EN;
 222:.\Generated_Source\PSoC5/ADC.c **** 
 223:.\Generated_Source\PSoC5/ADC.c ****     CyDelayUs(10u); /* The block is ready to use 10 us after the enable signal is set high. */
 224:.\Generated_Source\PSoC5/ADC.c **** 
 225:.\Generated_Source\PSoC5/ADC.c ****     #if(ADC_IRQ_REMOVE == 0u)
 226:.\Generated_Source\PSoC5/ADC.c ****         /* Clear a pending interrupt */
 227:.\Generated_Source\PSoC5/ADC.c ****         CyIntClearPending(ADC_INTC_NUMBER);
 228:.\Generated_Source\PSoC5/ADC.c ****     #endif   /* End ADC_IRQ_REMOVE */
 229:.\Generated_Source\PSoC5/ADC.c **** 
 230:.\Generated_Source\PSoC5/ADC.c ****     CyExitCriticalSection(enableInterrupts);
 231:.\Generated_Source\PSoC5/ADC.c **** }
 232:.\Generated_Source\PSoC5/ADC.c **** 
 233:.\Generated_Source\PSoC5/ADC.c **** 
 234:.\Generated_Source\PSoC5/ADC.c **** /*******************************************************************************
 235:.\Generated_Source\PSoC5/ADC.c **** * Function Name: ADC_Stop
 236:.\Generated_Source\PSoC5/ADC.c **** ********************************************************************************
 237:.\Generated_Source\PSoC5/ADC.c **** *
 238:.\Generated_Source\PSoC5/ADC.c **** * Summary:
 239:.\Generated_Source\PSoC5/ADC.c **** *  Stops ADC conversions and puts the ADC into its lowest power mode.
 240:.\Generated_Source\PSoC5/ADC.c **** *
 241:.\Generated_Source\PSoC5/ADC.c **** * Parameters:
 242:.\Generated_Source\PSoC5/ADC.c **** *  None.
 243:.\Generated_Source\PSoC5/ADC.c **** *
 244:.\Generated_Source\PSoC5/ADC.c **** * Return:
 245:.\Generated_Source\PSoC5/ADC.c **** *  None.
 246:.\Generated_Source\PSoC5/ADC.c **** *
 247:.\Generated_Source\PSoC5/ADC.c **** *******************************************************************************/
 248:.\Generated_Source\PSoC5/ADC.c **** void ADC_Stop(void)
 249:.\Generated_Source\PSoC5/ADC.c **** {
 250:.\Generated_Source\PSoC5/ADC.c ****     uint8 enableInterrupts;
 251:.\Generated_Source\PSoC5/ADC.c ****     enableInterrupts = CyEnterCriticalSection();
 252:.\Generated_Source\PSoC5/ADC.c **** 
 253:.\Generated_Source\PSoC5/ADC.c ****     /* Stop all conversions */
 254:.\Generated_Source\PSoC5/ADC.c ****     ADC_SAR_CSR0_REG &= (uint8)~ADC_SAR_SOF_START_CONV;
 255:.\Generated_Source\PSoC5/ADC.c ****     /* Disable the SAR ADC block in Active Power Mode */
 256:.\Generated_Source\PSoC5/ADC.c ****     ADC_PWRMGR_SAR_REG &= (uint8)~ADC_ACT_PWR_SAR_EN;
 257:.\Generated_Source\PSoC5/ADC.c ****     /* Disable the SAR ADC in Standby Power Mode */
 258:.\Generated_Source\PSoC5/ADC.c ****     ADC_STBY_PWRMGR_SAR_REG &= (uint8)~ADC_STBY_PWR_SAR_EN;
 259:.\Generated_Source\PSoC5/ADC.c **** 
 260:.\Generated_Source\PSoC5/ADC.c ****     /* This is only valid if there is an internal clock */
ARM GAS  C:\Users\SUZUKI~1\AppData\Local\Temp\cc5iwTlG.s 			page 6


 261:.\Generated_Source\PSoC5/ADC.c ****     #if(ADC_DEFAULT_INTERNAL_CLK)
 262:.\Generated_Source\PSoC5/ADC.c ****         ADC_PWRMGR_CLK_REG &= (uint8)~ADC_ACT_PWR_CLK_EN;
 263:.\Generated_Source\PSoC5/ADC.c ****         ADC_STBY_PWRMGR_CLK_REG &= (uint8)~ADC_STBY_PWR_CLK_EN;
 264:.\Generated_Source\PSoC5/ADC.c ****     #endif /* End ADC_DEFAULT_INTERNAL_CLK */
 265:.\Generated_Source\PSoC5/ADC.c **** 
 266:.\Generated_Source\PSoC5/ADC.c ****     CyExitCriticalSection(enableInterrupts);
 267:.\Generated_Source\PSoC5/ADC.c **** 
 268:.\Generated_Source\PSoC5/ADC.c **** }
 269:.\Generated_Source\PSoC5/ADC.c **** 
 270:.\Generated_Source\PSoC5/ADC.c **** 
 271:.\Generated_Source\PSoC5/ADC.c **** /*******************************************************************************
 272:.\Generated_Source\PSoC5/ADC.c **** * Function Name: ADC_SetPower
 273:.\Generated_Source\PSoC5/ADC.c **** ********************************************************************************
 274:.\Generated_Source\PSoC5/ADC.c **** *
 275:.\Generated_Source\PSoC5/ADC.c **** * Summary:
 276:.\Generated_Source\PSoC5/ADC.c **** *  Sets the operational power of the ADC. You should use the higher power
 277:.\Generated_Source\PSoC5/ADC.c **** *  settings with faster clock speeds.
 278:.\Generated_Source\PSoC5/ADC.c **** *
 279:.\Generated_Source\PSoC5/ADC.c **** * Parameters:
 280:.\Generated_Source\PSoC5/ADC.c **** *  power:  Power setting for ADC
 281:.\Generated_Source\PSoC5/ADC.c **** *  0 ->    Normal
 282:.\Generated_Source\PSoC5/ADC.c **** *  1 ->    Medium power
 283:.\Generated_Source\PSoC5/ADC.c **** *  2 ->    1.25 power
 284:.\Generated_Source\PSoC5/ADC.c **** *  3 ->    Minimum power.
 285:.\Generated_Source\PSoC5/ADC.c **** *
 286:.\Generated_Source\PSoC5/ADC.c **** * Return:
 287:.\Generated_Source\PSoC5/ADC.c **** *  None.
 288:.\Generated_Source\PSoC5/ADC.c **** *
 289:.\Generated_Source\PSoC5/ADC.c **** *******************************************************************************/
 290:.\Generated_Source\PSoC5/ADC.c **** void ADC_SetPower(uint8 power)
 291:.\Generated_Source\PSoC5/ADC.c **** {
 292:.\Generated_Source\PSoC5/ADC.c ****     uint8 tmpReg;
 293:.\Generated_Source\PSoC5/ADC.c **** 
 294:.\Generated_Source\PSoC5/ADC.c ****     /* mask off invalid power settings */
 295:.\Generated_Source\PSoC5/ADC.c ****     power &= ADC_SAR_API_POWER_MASK;
 296:.\Generated_Source\PSoC5/ADC.c **** 
 297:.\Generated_Source\PSoC5/ADC.c ****     /* Set Power parameter  */
 298:.\Generated_Source\PSoC5/ADC.c ****     tmpReg = ADC_SAR_CSR0_REG & (uint8)~ADC_SAR_POWER_MASK;
 299:.\Generated_Source\PSoC5/ADC.c ****     tmpReg |= (uint8)(power << ADC_SAR_POWER_SHIFT);
 300:.\Generated_Source\PSoC5/ADC.c ****     ADC_SAR_CSR0_REG = tmpReg;
 301:.\Generated_Source\PSoC5/ADC.c **** }
 302:.\Generated_Source\PSoC5/ADC.c **** 
 303:.\Generated_Source\PSoC5/ADC.c **** 
 304:.\Generated_Source\PSoC5/ADC.c **** /*******************************************************************************
 305:.\Generated_Source\PSoC5/ADC.c **** * Function Name: ADC_SetResolution
 306:.\Generated_Source\PSoC5/ADC.c **** ********************************************************************************
 307:.\Generated_Source\PSoC5/ADC.c **** *
 308:.\Generated_Source\PSoC5/ADC.c **** * Summary:
 309:.\Generated_Source\PSoC5/ADC.c **** *  Sets the Relution of the SAR.
 310:.\Generated_Source\PSoC5/ADC.c **** *
 311:.\Generated_Source\PSoC5/ADC.c **** * Parameters:
 312:.\Generated_Source\PSoC5/ADC.c **** *  resolution:
 313:.\Generated_Source\PSoC5/ADC.c **** *  12 ->    RES12
 314:.\Generated_Source\PSoC5/ADC.c **** *  10 ->    RES10
 315:.\Generated_Source\PSoC5/ADC.c **** *  8  ->    RES8
 316:.\Generated_Source\PSoC5/ADC.c **** *
 317:.\Generated_Source\PSoC5/ADC.c **** * Return:
ARM GAS  C:\Users\SUZUKI~1\AppData\Local\Temp\cc5iwTlG.s 			page 7


 318:.\Generated_Source\PSoC5/ADC.c **** *  None.
 319:.\Generated_Source\PSoC5/ADC.c **** *
 320:.\Generated_Source\PSoC5/ADC.c **** * Side Effects:
 321:.\Generated_Source\PSoC5/ADC.c **** *  The ADC resolution cannot be changed during a conversion cycle. The
 322:.\Generated_Source\PSoC5/ADC.c **** *  recommended best practice is to stop conversions with
 323:.\Generated_Source\PSoC5/ADC.c **** *  ADC_StopConvert(), change the resolution, then restart the
 324:.\Generated_Source\PSoC5/ADC.c **** *  conversions with ADC_StartConvert().
 325:.\Generated_Source\PSoC5/ADC.c **** *  If you decide not to stop conversions before calling this API, you
 326:.\Generated_Source\PSoC5/ADC.c **** *  should use ADC_IsEndConversion() to wait until conversion is complete
 327:.\Generated_Source\PSoC5/ADC.c **** *  before changing the resolution.
 328:.\Generated_Source\PSoC5/ADC.c **** *  If you call ADC_SetResolution() during a conversion, the resolution will
 329:.\Generated_Source\PSoC5/ADC.c **** *  not be changed until the current conversion is complete. Data will not be
 330:.\Generated_Source\PSoC5/ADC.c **** *  available in the new resolution for another 6 + "New Resolution(in bits)"
 331:.\Generated_Source\PSoC5/ADC.c **** *  clock cycles.
 332:.\Generated_Source\PSoC5/ADC.c **** *  You may need add a delay of this number of clock cycles after
 333:.\Generated_Source\PSoC5/ADC.c **** *  ADC_SetResolution() is called before data is valid again.
 334:.\Generated_Source\PSoC5/ADC.c **** *  Affects ADC_CountsTo_Volts(), ADC_CountsTo_mVolts(), and
 335:.\Generated_Source\PSoC5/ADC.c **** *  ADC_CountsTo_uVolts() by calculating the correct conversion between ADC
 336:.\Generated_Source\PSoC5/ADC.c **** *  counts and the applied input voltage. Calculation depends on resolution,
 337:.\Generated_Source\PSoC5/ADC.c **** *  input range, and voltage reference.
 338:.\Generated_Source\PSoC5/ADC.c **** *
 339:.\Generated_Source\PSoC5/ADC.c **** *******************************************************************************/
 340:.\Generated_Source\PSoC5/ADC.c **** void ADC_SetResolution(uint8 resolution)
 341:.\Generated_Source\PSoC5/ADC.c **** {
 342:.\Generated_Source\PSoC5/ADC.c ****     uint8 tmpReg;
 343:.\Generated_Source\PSoC5/ADC.c **** 
 344:.\Generated_Source\PSoC5/ADC.c ****     /* Set SAR ADC resolution and sample width: 18 conversion cycles at 12bits + 1 gap */
 345:.\Generated_Source\PSoC5/ADC.c ****     switch (resolution)
 346:.\Generated_Source\PSoC5/ADC.c ****     {
 347:.\Generated_Source\PSoC5/ADC.c ****         case (uint8)ADC__BITS_12:
 348:.\Generated_Source\PSoC5/ADC.c ****             tmpReg = ADC_SAR_RESOLUTION_12BIT | ADC_SAR_SAMPLE_WIDTH;
 349:.\Generated_Source\PSoC5/ADC.c ****             break;
 350:.\Generated_Source\PSoC5/ADC.c ****         case (uint8)ADC__BITS_10:
 351:.\Generated_Source\PSoC5/ADC.c ****             tmpReg = ADC_SAR_RESOLUTION_10BIT | ADC_SAR_SAMPLE_WIDTH;
 352:.\Generated_Source\PSoC5/ADC.c ****             break;
 353:.\Generated_Source\PSoC5/ADC.c ****         case (uint8)ADC__BITS_8:
 354:.\Generated_Source\PSoC5/ADC.c ****             tmpReg = ADC_SAR_RESOLUTION_8BIT | ADC_SAR_SAMPLE_WIDTH;
 355:.\Generated_Source\PSoC5/ADC.c ****             break;
 356:.\Generated_Source\PSoC5/ADC.c ****         default:
 357:.\Generated_Source\PSoC5/ADC.c ****             tmpReg = ADC_SAR_RESOLUTION_12BIT | ADC_SAR_SAMPLE_WIDTH;
 358:.\Generated_Source\PSoC5/ADC.c ****             /* Halt CPU in debug mode if resolution is out of valid range */
 359:.\Generated_Source\PSoC5/ADC.c ****             CYASSERT(0u != 0u);
 360:.\Generated_Source\PSoC5/ADC.c ****             break;
 361:.\Generated_Source\PSoC5/ADC.c ****     }
 362:.\Generated_Source\PSoC5/ADC.c ****     ADC_SAR_CSR2_REG = tmpReg;
 363:.\Generated_Source\PSoC5/ADC.c **** 
 364:.\Generated_Source\PSoC5/ADC.c ****      /* Calculate gain for convert counts to volts */
 365:.\Generated_Source\PSoC5/ADC.c ****     ADC_CalcGain(resolution);
 366:.\Generated_Source\PSoC5/ADC.c **** }
 367:.\Generated_Source\PSoC5/ADC.c **** 
 368:.\Generated_Source\PSoC5/ADC.c **** 
 369:.\Generated_Source\PSoC5/ADC.c **** #if(ADC_DEFAULT_CONV_MODE != ADC__HARDWARE_TRIGGER)
 370:.\Generated_Source\PSoC5/ADC.c **** 
 371:.\Generated_Source\PSoC5/ADC.c **** 
 372:.\Generated_Source\PSoC5/ADC.c ****     /*******************************************************************************
 373:.\Generated_Source\PSoC5/ADC.c ****     * Function Name: ADC_StartConvert
 374:.\Generated_Source\PSoC5/ADC.c ****     ********************************************************************************
ARM GAS  C:\Users\SUZUKI~1\AppData\Local\Temp\cc5iwTlG.s 			page 8


 375:.\Generated_Source\PSoC5/ADC.c ****     *
 376:.\Generated_Source\PSoC5/ADC.c ****     * Summary:
 377:.\Generated_Source\PSoC5/ADC.c ****     *  Forces the ADC to initiate a conversion. In free-running mode, the ADC runs
 378:.\Generated_Source\PSoC5/ADC.c ****     *  continuously. In software trigger mode, the function also acts as a software
 379:.\Generated_Source\PSoC5/ADC.c ****     *  version of the SOC and every conversion must be triggered by
 380:.\Generated_Source\PSoC5/ADC.c ****     *  ADC_StartConvert(). This function is not available when the
 381:.\Generated_Source\PSoC5/ADC.c ****     *  Hardware Trigger sample mode is selected.
 382:.\Generated_Source\PSoC5/ADC.c ****     *
 383:.\Generated_Source\PSoC5/ADC.c ****     * Parameters:
 384:.\Generated_Source\PSoC5/ADC.c ****     *  None.
 385:.\Generated_Source\PSoC5/ADC.c ****     *
 386:.\Generated_Source\PSoC5/ADC.c ****     * Return:
 387:.\Generated_Source\PSoC5/ADC.c ****     *  None.
 388:.\Generated_Source\PSoC5/ADC.c ****     *
 389:.\Generated_Source\PSoC5/ADC.c ****     * Theory:
 390:.\Generated_Source\PSoC5/ADC.c ****     *  Forces the ADC to initiate a conversion. In Free Running mode, the ADC will
 391:.\Generated_Source\PSoC5/ADC.c ****     *  run continuously. In a software trigger mode the function also acts as a
 392:.\Generated_Source\PSoC5/ADC.c ****     *  software version of the SOC. Here every conversion has to be triggered by
 393:.\Generated_Source\PSoC5/ADC.c ****     *  the routine. This writes into the SOC bit in SAR_CTRL reg.
 394:.\Generated_Source\PSoC5/ADC.c ****     *
 395:.\Generated_Source\PSoC5/ADC.c ****     * Side Effects:
 396:.\Generated_Source\PSoC5/ADC.c ****     *  In a software trigger mode the function switches source for SOF from the
 397:.\Generated_Source\PSoC5/ADC.c ****     *  external pin to the internal SOF generation. Application should not call
 398:.\Generated_Source\PSoC5/ADC.c ****     *  StartConvert if external source used for SOF.
 399:.\Generated_Source\PSoC5/ADC.c ****     *
 400:.\Generated_Source\PSoC5/ADC.c ****     *******************************************************************************/
 401:.\Generated_Source\PSoC5/ADC.c ****     void ADC_StartConvert(void)
 402:.\Generated_Source\PSoC5/ADC.c ****     {
 403:.\Generated_Source\PSoC5/ADC.c ****         #if(ADC_DEFAULT_CONV_MODE != ADC__FREE_RUNNING)  /* If software triggered mode */
 404:.\Generated_Source\PSoC5/ADC.c ****             ADC_SAR_CSR0_REG &= (uint8)~ADC_SAR_MX_SOF_UDB;   /* source: SOF bit */
 405:.\Generated_Source\PSoC5/ADC.c ****         #endif /* End ADC_DEFAULT_CONV_MODE */
 406:.\Generated_Source\PSoC5/ADC.c **** 
 407:.\Generated_Source\PSoC5/ADC.c ****         /* Start the conversion */
 408:.\Generated_Source\PSoC5/ADC.c ****         ADC_SAR_CSR0_REG |= ADC_SAR_SOF_START_CONV;
 409:.\Generated_Source\PSoC5/ADC.c ****     }
 410:.\Generated_Source\PSoC5/ADC.c **** 
 411:.\Generated_Source\PSoC5/ADC.c **** 
 412:.\Generated_Source\PSoC5/ADC.c ****     /*******************************************************************************
 413:.\Generated_Source\PSoC5/ADC.c ****     * Function Name: ADC_StopConvert
 414:.\Generated_Source\PSoC5/ADC.c ****     ********************************************************************************
 415:.\Generated_Source\PSoC5/ADC.c ****     *
 416:.\Generated_Source\PSoC5/ADC.c ****     * Summary:
 417:.\Generated_Source\PSoC5/ADC.c ****     *  Forces the ADC to stop conversions. If a conversion is currently executing,
 418:.\Generated_Source\PSoC5/ADC.c ****     *  that conversion will complete, but no further conversions will occur. This
 419:.\Generated_Source\PSoC5/ADC.c ****     *  function is not available when the Hardware Trigger sample mode is selected.
 420:.\Generated_Source\PSoC5/ADC.c ****     *
 421:.\Generated_Source\PSoC5/ADC.c ****     * Parameters:
 422:.\Generated_Source\PSoC5/ADC.c ****     *  None.
 423:.\Generated_Source\PSoC5/ADC.c ****     *
 424:.\Generated_Source\PSoC5/ADC.c ****     * Return:
 425:.\Generated_Source\PSoC5/ADC.c ****     *  None.
 426:.\Generated_Source\PSoC5/ADC.c ****     *
 427:.\Generated_Source\PSoC5/ADC.c ****     * Theory:
 428:.\Generated_Source\PSoC5/ADC.c ****     *  Stops ADC conversion in Free Running mode.
 429:.\Generated_Source\PSoC5/ADC.c ****     *
 430:.\Generated_Source\PSoC5/ADC.c ****     * Side Effects:
 431:.\Generated_Source\PSoC5/ADC.c ****     *  In Software Trigger sample mode, this function sets a software version of the
ARM GAS  C:\Users\SUZUKI~1\AppData\Local\Temp\cc5iwTlG.s 			page 9


 432:.\Generated_Source\PSoC5/ADC.c ****     *  SOC to low level and switches the SOC source to hardware SOC input.
 433:.\Generated_Source\PSoC5/ADC.c ****     *
 434:.\Generated_Source\PSoC5/ADC.c ****     *******************************************************************************/
 435:.\Generated_Source\PSoC5/ADC.c ****     void ADC_StopConvert(void)
 436:.\Generated_Source\PSoC5/ADC.c ****     {
 437:.\Generated_Source\PSoC5/ADC.c ****         /* Stop all conversions */
 438:.\Generated_Source\PSoC5/ADC.c ****         ADC_SAR_CSR0_REG &= (uint8)~ADC_SAR_SOF_START_CONV;
 439:.\Generated_Source\PSoC5/ADC.c **** 
 440:.\Generated_Source\PSoC5/ADC.c ****         #if(ADC_DEFAULT_CONV_MODE != ADC__FREE_RUNNING)  /* If software triggered mode */
 441:.\Generated_Source\PSoC5/ADC.c ****             /* Return source to UDB for hardware SOF signal */
 442:.\Generated_Source\PSoC5/ADC.c ****             ADC_SAR_CSR0_REG |= ADC_SAR_MX_SOF_UDB;    /* source: UDB */
 443:.\Generated_Source\PSoC5/ADC.c ****         #endif /* End ADC_DEFAULT_CONV_MODE */
 444:.\Generated_Source\PSoC5/ADC.c **** 
 445:.\Generated_Source\PSoC5/ADC.c ****     }
 446:.\Generated_Source\PSoC5/ADC.c **** 
 447:.\Generated_Source\PSoC5/ADC.c **** #endif /* End ADC_DEFAULT_CONV_MODE != ADC__HARDWARE_TRIGGER */
 448:.\Generated_Source\PSoC5/ADC.c **** 
 449:.\Generated_Source\PSoC5/ADC.c **** 
 450:.\Generated_Source\PSoC5/ADC.c **** /*******************************************************************************
 451:.\Generated_Source\PSoC5/ADC.c **** * Function Name: ADC_IsEndConversion
 452:.\Generated_Source\PSoC5/ADC.c **** ********************************************************************************
 453:.\Generated_Source\PSoC5/ADC.c **** *
 454:.\Generated_Source\PSoC5/ADC.c **** * Summary:
 455:.\Generated_Source\PSoC5/ADC.c **** *  Immediately returns the status of the conversion or does not return
 456:.\Generated_Source\PSoC5/ADC.c **** *  (blocking) until the conversion completes, depending on the retMode
 457:.\Generated_Source\PSoC5/ADC.c **** *  parameter.
 458:.\Generated_Source\PSoC5/ADC.c **** *
 459:.\Generated_Source\PSoC5/ADC.c **** * Parameters:
 460:.\Generated_Source\PSoC5/ADC.c **** *  retMode:  Check conversion return mode.
 461:.\Generated_Source\PSoC5/ADC.c **** *   ADC_RETURN_STATUS: Immediately returns the status. If the
 462:.\Generated_Source\PSoC5/ADC.c **** *     value returned is zero, the conversion is not complete, and this function
 463:.\Generated_Source\PSoC5/ADC.c **** *     should be retried until a nonzero result is returned.
 464:.\Generated_Source\PSoC5/ADC.c **** *   ADC_WAIT_FOR_RESULT: Does not return a result until the ADC
 465:.\Generated_Source\PSoC5/ADC.c **** *     conversion is complete.
 466:.\Generated_Source\PSoC5/ADC.c **** *
 467:.\Generated_Source\PSoC5/ADC.c **** * Return:
 468:.\Generated_Source\PSoC5/ADC.c **** *  (uint8)  0 =>  The ADC is still calculating the last result.
 469:.\Generated_Source\PSoC5/ADC.c **** *           1 =>  The last conversion is complete.
 470:.\Generated_Source\PSoC5/ADC.c **** *
 471:.\Generated_Source\PSoC5/ADC.c **** * Side Effects:
 472:.\Generated_Source\PSoC5/ADC.c **** *  This function reads the end of conversion status, which is cleared on read.
 473:.\Generated_Source\PSoC5/ADC.c **** *
 474:.\Generated_Source\PSoC5/ADC.c **** *******************************************************************************/
 475:.\Generated_Source\PSoC5/ADC.c **** uint8 ADC_IsEndConversion(uint8 retMode)
 476:.\Generated_Source\PSoC5/ADC.c **** {
 477:.\Generated_Source\PSoC5/ADC.c ****     uint8 status;
 478:.\Generated_Source\PSoC5/ADC.c **** 
 479:.\Generated_Source\PSoC5/ADC.c ****     do
 480:.\Generated_Source\PSoC5/ADC.c ****     {
 481:.\Generated_Source\PSoC5/ADC.c ****         status = ADC_SAR_CSR1_REG & ADC_SAR_EOF_1;
 482:.\Generated_Source\PSoC5/ADC.c ****     } while ((status != ADC_SAR_EOF_1) && (retMode == ADC_WAIT_FOR_RESULT));
 483:.\Generated_Source\PSoC5/ADC.c ****     /* If convertion complete, wait until EOF bit released */
 484:.\Generated_Source\PSoC5/ADC.c ****     if(status == ADC_SAR_EOF_1)
 485:.\Generated_Source\PSoC5/ADC.c ****     {
 486:.\Generated_Source\PSoC5/ADC.c ****         /* wait one ADC clock to let the EOC status bit release */
 487:.\Generated_Source\PSoC5/ADC.c ****         CyDelayUs(1u);
 488:.\Generated_Source\PSoC5/ADC.c ****         /* Do the unconditional read operation of the CSR1 register to make sure the EOC bit has be
ARM GAS  C:\Users\SUZUKI~1\AppData\Local\Temp\cc5iwTlG.s 			page 10


 489:.\Generated_Source\PSoC5/ADC.c ****         CY_GET_REG8(ADC_SAR_CSR1_PTR);
 490:.\Generated_Source\PSoC5/ADC.c ****     }
 491:.\Generated_Source\PSoC5/ADC.c **** 
 492:.\Generated_Source\PSoC5/ADC.c ****     return(status);
 493:.\Generated_Source\PSoC5/ADC.c **** }
 494:.\Generated_Source\PSoC5/ADC.c **** 
 495:.\Generated_Source\PSoC5/ADC.c **** 
 496:.\Generated_Source\PSoC5/ADC.c **** /*******************************************************************************
 497:.\Generated_Source\PSoC5/ADC.c **** * Function Name: ADC_GetResult8
 498:.\Generated_Source\PSoC5/ADC.c **** ********************************************************************************
 499:.\Generated_Source\PSoC5/ADC.c **** *
 500:.\Generated_Source\PSoC5/ADC.c **** * Summary:
 501:.\Generated_Source\PSoC5/ADC.c **** *  Returns the result of an 8-bit conversion. If the resolution is set greater
 502:.\Generated_Source\PSoC5/ADC.c **** *  than 8 bits, the function returns the LSB of the result.
 503:.\Generated_Source\PSoC5/ADC.c **** *  ADC_IsEndConversion() should be called to verify that the data
 504:.\Generated_Source\PSoC5/ADC.c **** *   sample is ready.
 505:.\Generated_Source\PSoC5/ADC.c **** *
 506:.\Generated_Source\PSoC5/ADC.c **** * Parameters:
 507:.\Generated_Source\PSoC5/ADC.c **** *  None.
 508:.\Generated_Source\PSoC5/ADC.c **** *
 509:.\Generated_Source\PSoC5/ADC.c **** * Return:
 510:.\Generated_Source\PSoC5/ADC.c **** *  The LSB of the last ADC conversion.
 511:.\Generated_Source\PSoC5/ADC.c **** *
 512:.\Generated_Source\PSoC5/ADC.c **** * Global Variables:
 513:.\Generated_Source\PSoC5/ADC.c **** *  ADC_shift - used to convert the ADC counts to the 2s
 514:.\Generated_Source\PSoC5/ADC.c **** *  compliment form.
 515:.\Generated_Source\PSoC5/ADC.c **** *
 516:.\Generated_Source\PSoC5/ADC.c **** * Side Effects:
 517:.\Generated_Source\PSoC5/ADC.c **** *  Converts the ADC counts to the 2s complement form.
 518:.\Generated_Source\PSoC5/ADC.c **** *
 519:.\Generated_Source\PSoC5/ADC.c **** *******************************************************************************/
 520:.\Generated_Source\PSoC5/ADC.c **** int8 ADC_GetResult8( void )
 521:.\Generated_Source\PSoC5/ADC.c **** {
 522:.\Generated_Source\PSoC5/ADC.c ****     return( (int8)ADC_SAR_WRK0_REG - (int8)ADC_shift);
 523:.\Generated_Source\PSoC5/ADC.c **** }
 524:.\Generated_Source\PSoC5/ADC.c **** 
 525:.\Generated_Source\PSoC5/ADC.c **** 
 526:.\Generated_Source\PSoC5/ADC.c **** /*******************************************************************************
 527:.\Generated_Source\PSoC5/ADC.c **** * Function Name: ADC_GetResult16
 528:.\Generated_Source\PSoC5/ADC.c **** ********************************************************************************
 529:.\Generated_Source\PSoC5/ADC.c **** *
 530:.\Generated_Source\PSoC5/ADC.c **** * Summary:
 531:.\Generated_Source\PSoC5/ADC.c **** *  Returns a 16-bit result for a conversion with a result that has a resolution
 532:.\Generated_Source\PSoC5/ADC.c **** *  of 8 to 12 bits.
 533:.\Generated_Source\PSoC5/ADC.c **** *  ADC_IsEndConversion() should be called to verify that the data
 534:.\Generated_Source\PSoC5/ADC.c **** *   sample is ready
 535:.\Generated_Source\PSoC5/ADC.c **** *
 536:.\Generated_Source\PSoC5/ADC.c **** * Parameters:
 537:.\Generated_Source\PSoC5/ADC.c **** *  None.
 538:.\Generated_Source\PSoC5/ADC.c **** *
 539:.\Generated_Source\PSoC5/ADC.c **** * Return:
 540:.\Generated_Source\PSoC5/ADC.c **** *  The 16-bit result of the last ADC conversion
 541:.\Generated_Source\PSoC5/ADC.c **** *
 542:.\Generated_Source\PSoC5/ADC.c **** * Global Variables:
 543:.\Generated_Source\PSoC5/ADC.c **** *  ADC_shift - used to convert the ADC counts to the 2s
 544:.\Generated_Source\PSoC5/ADC.c **** *  compliment form.
 545:.\Generated_Source\PSoC5/ADC.c **** *
ARM GAS  C:\Users\SUZUKI~1\AppData\Local\Temp\cc5iwTlG.s 			page 11


 546:.\Generated_Source\PSoC5/ADC.c **** * Side Effects:
 547:.\Generated_Source\PSoC5/ADC.c **** *  Converts the ADC counts to the 2s complement form.
 548:.\Generated_Source\PSoC5/ADC.c **** *
 549:.\Generated_Source\PSoC5/ADC.c **** *******************************************************************************/
 550:.\Generated_Source\PSoC5/ADC.c **** int16 ADC_GetResult16( void )
 551:.\Generated_Source\PSoC5/ADC.c **** {
 552:.\Generated_Source\PSoC5/ADC.c ****     uint16 res;
 553:.\Generated_Source\PSoC5/ADC.c **** 
 554:.\Generated_Source\PSoC5/ADC.c ****     res = CY_GET_REG16(ADC_SAR_WRK_PTR);
 555:.\Generated_Source\PSoC5/ADC.c **** 
 556:.\Generated_Source\PSoC5/ADC.c ****     return( (int16)res - ADC_shift );
 557:.\Generated_Source\PSoC5/ADC.c **** }
 558:.\Generated_Source\PSoC5/ADC.c **** 
 559:.\Generated_Source\PSoC5/ADC.c **** 
 560:.\Generated_Source\PSoC5/ADC.c **** /*******************************************************************************
 561:.\Generated_Source\PSoC5/ADC.c **** * Function Name: ADC_SetOffset
 562:.\Generated_Source\PSoC5/ADC.c **** ********************************************************************************
 563:.\Generated_Source\PSoC5/ADC.c **** *
 564:.\Generated_Source\PSoC5/ADC.c **** * Summary:
 565:.\Generated_Source\PSoC5/ADC.c **** *  Sets the ADC offset, which is used by ADC_CountsTo_Volts(),
 566:.\Generated_Source\PSoC5/ADC.c **** *  ADC_CountsTo_mVolts(), and ADC_CountsTo_uVolts()
 567:.\Generated_Source\PSoC5/ADC.c **** *  to subtract the offset from the given reading before calculating the voltage
 568:.\Generated_Source\PSoC5/ADC.c **** *  conversion.
 569:.\Generated_Source\PSoC5/ADC.c **** *
 570:.\Generated_Source\PSoC5/ADC.c **** * Parameters:
 571:.\Generated_Source\PSoC5/ADC.c **** *  int16: This value is measured when the inputs are shorted or connected to
 572:.\Generated_Source\PSoC5/ADC.c ****    the same input voltage.
 573:.\Generated_Source\PSoC5/ADC.c **** *
 574:.\Generated_Source\PSoC5/ADC.c **** * Return:
 575:.\Generated_Source\PSoC5/ADC.c **** *  None.
 576:.\Generated_Source\PSoC5/ADC.c **** *
 577:.\Generated_Source\PSoC5/ADC.c **** * Global Variables:
 578:.\Generated_Source\PSoC5/ADC.c **** *  The ADC_offset variable modified. This variable is used for
 579:.\Generated_Source\PSoC5/ADC.c **** *  offset calibration purpose.
 580:.\Generated_Source\PSoC5/ADC.c **** *  Affects the ADC_CountsTo_Volts,
 581:.\Generated_Source\PSoC5/ADC.c **** *  ADC_CountsTo_mVolts, ADC_CountsTo_uVolts functions
 582:.\Generated_Source\PSoC5/ADC.c **** *  by subtracting the given offset.
 583:.\Generated_Source\PSoC5/ADC.c **** *
 584:.\Generated_Source\PSoC5/ADC.c **** *******************************************************************************/
 585:.\Generated_Source\PSoC5/ADC.c **** void ADC_SetOffset(int16 offset)
 586:.\Generated_Source\PSoC5/ADC.c **** {
 587:.\Generated_Source\PSoC5/ADC.c ****     ADC_offset = offset;
 588:.\Generated_Source\PSoC5/ADC.c **** }
 589:.\Generated_Source\PSoC5/ADC.c **** 
 590:.\Generated_Source\PSoC5/ADC.c **** 
 591:.\Generated_Source\PSoC5/ADC.c **** /*******************************************************************************
 592:.\Generated_Source\PSoC5/ADC.c **** * Function Name: ADC_CalcGain
 593:.\Generated_Source\PSoC5/ADC.c **** ********************************************************************************
 594:.\Generated_Source\PSoC5/ADC.c **** *
 595:.\Generated_Source\PSoC5/ADC.c **** * Summary:
 596:.\Generated_Source\PSoC5/ADC.c **** *  This function calculates the ADC gain in counts per 10 volt.
 597:.\Generated_Source\PSoC5/ADC.c **** *
 598:.\Generated_Source\PSoC5/ADC.c **** * Parameters:
 599:.\Generated_Source\PSoC5/ADC.c **** *  uint8: resolution
 600:.\Generated_Source\PSoC5/ADC.c **** *
 601:.\Generated_Source\PSoC5/ADC.c **** * Return:
 602:.\Generated_Source\PSoC5/ADC.c **** *  None.
ARM GAS  C:\Users\SUZUKI~1\AppData\Local\Temp\cc5iwTlG.s 			page 12


 603:.\Generated_Source\PSoC5/ADC.c **** *
 604:.\Generated_Source\PSoC5/ADC.c **** * Global Variables:
 605:.\Generated_Source\PSoC5/ADC.c **** *  ADC_shift variable initialized. This variable is used to
 606:.\Generated_Source\PSoC5/ADC.c **** *  convert the ADC counts to the 2s compliment form.
 607:.\Generated_Source\PSoC5/ADC.c **** *  ADC_countsPer10Volt variable initialized. This variable is used
 608:.\Generated_Source\PSoC5/ADC.c **** *  for gain calibration purpose.
 609:.\Generated_Source\PSoC5/ADC.c **** *
 610:.\Generated_Source\PSoC5/ADC.c **** *******************************************************************************/
 611:.\Generated_Source\PSoC5/ADC.c **** static void ADC_CalcGain( uint8 resolution )
 612:.\Generated_Source\PSoC5/ADC.c **** {
  26              		.loc 1 612 0
  27              		.cfi_startproc
  28              		@ args = 0, pretend = 0, frame = 0
  29              		@ frame_needed = 0, uses_anonymous_args = 0
  30              	.LVL0:
  31 0000 08B5     		push	{r3, lr}
  32              		.cfi_def_cfa_offset 8
  33              		.cfi_offset 3, -8
  34              		.cfi_offset 14, -4
 613:.\Generated_Source\PSoC5/ADC.c ****     int32 counts;
 614:.\Generated_Source\PSoC5/ADC.c ****     #if(!((ADC_DEFAULT_RANGE == ADC__VSS_TO_VREF) || \
 615:.\Generated_Source\PSoC5/ADC.c ****          (ADC_DEFAULT_RANGE == ADC__VSSA_TO_VDDA) || \
 616:.\Generated_Source\PSoC5/ADC.c ****          (ADC_DEFAULT_RANGE == ADC__VSSA_TO_VDAC)) )
 617:.\Generated_Source\PSoC5/ADC.c ****         uint16 diff_zero;
 618:.\Generated_Source\PSoC5/ADC.c ****     #endif /* End ADC_DEFAULT_RANGE */
 619:.\Generated_Source\PSoC5/ADC.c **** 
 620:.\Generated_Source\PSoC5/ADC.c ****     switch (resolution)
  35              		.loc 1 620 0
  36 0002 0A28     		cmp	r0, #10
  37 0004 0FD0     		beq	.L6
  38 0006 0C28     		cmp	r0, #12
  39 0008 02D0     		beq	.L4
  40 000a 0828     		cmp	r0, #8
  41 000c 06D1     		bne	.L7
  42 000e 02E0     		b	.L5
  43              	.L4:
 621:.\Generated_Source\PSoC5/ADC.c ****     {
 622:.\Generated_Source\PSoC5/ADC.c ****         case (uint8)ADC__BITS_12:
 623:.\Generated_Source\PSoC5/ADC.c ****             counts = (int32)ADC_SAR_WRK_MAX_12BIT;
  44              		.loc 1 623 0
  45 0010 4FF48052 		mov	r2, #4096
  46 0014 09E0     		b	.L3
  47              	.L5:
  48              	.LVL1:
 624:.\Generated_Source\PSoC5/ADC.c ****             #if(!((ADC_DEFAULT_RANGE == ADC__VSS_TO_VREF) || \
 625:.\Generated_Source\PSoC5/ADC.c ****                  (ADC_DEFAULT_RANGE == ADC__VSSA_TO_VDDA) || \
 626:.\Generated_Source\PSoC5/ADC.c ****                  (ADC_DEFAULT_RANGE == ADC__VSSA_TO_VDAC)) )
 627:.\Generated_Source\PSoC5/ADC.c ****                 diff_zero = ADC_SAR_DIFF_SHIFT;
 628:.\Generated_Source\PSoC5/ADC.c ****             #endif /* End ADC_DEFAULT_RANGE */
 629:.\Generated_Source\PSoC5/ADC.c ****             break;
 630:.\Generated_Source\PSoC5/ADC.c ****         case (uint8)ADC__BITS_10:
 631:.\Generated_Source\PSoC5/ADC.c ****             counts = (int32)ADC_SAR_WRK_MAX_10BIT;
 632:.\Generated_Source\PSoC5/ADC.c ****             #if(!((ADC_DEFAULT_RANGE == ADC__VSS_TO_VREF) || \
 633:.\Generated_Source\PSoC5/ADC.c ****                  (ADC_DEFAULT_RANGE == ADC__VSSA_TO_VDDA) || \
 634:.\Generated_Source\PSoC5/ADC.c ****                  (ADC_DEFAULT_RANGE == ADC__VSSA_TO_VDAC)) )
 635:.\Generated_Source\PSoC5/ADC.c ****                 diff_zero = ADC_SAR_DIFF_SHIFT >> 2u;
 636:.\Generated_Source\PSoC5/ADC.c ****             #endif /* End ADC_DEFAULT_RANGE */
ARM GAS  C:\Users\SUZUKI~1\AppData\Local\Temp\cc5iwTlG.s 			page 13


 637:.\Generated_Source\PSoC5/ADC.c ****             break;
 638:.\Generated_Source\PSoC5/ADC.c ****         case (uint8)ADC__BITS_8:
 639:.\Generated_Source\PSoC5/ADC.c ****             counts = (int32)ADC_SAR_WRK_MAX_8BIT;
  49              		.loc 1 639 0
  50 0016 4FF48072 		mov	r2, #256
 640:.\Generated_Source\PSoC5/ADC.c ****             #if(!((ADC_DEFAULT_RANGE == ADC__VSS_TO_VREF) || \
 641:.\Generated_Source\PSoC5/ADC.c ****                  (ADC_DEFAULT_RANGE == ADC__VSSA_TO_VDDA) || \
 642:.\Generated_Source\PSoC5/ADC.c ****                  (ADC_DEFAULT_RANGE == ADC__VSSA_TO_VDAC)) )
 643:.\Generated_Source\PSoC5/ADC.c ****                 diff_zero = ADC_SAR_DIFF_SHIFT >> 4u;
 644:.\Generated_Source\PSoC5/ADC.c ****             #endif /* End ADC_DEFAULT_RANGE */
 645:.\Generated_Source\PSoC5/ADC.c ****             break;
  51              		.loc 1 645 0
  52 001a 06E0     		b	.L3
  53              	.LVL2:
  54              	.L7:
 646:.\Generated_Source\PSoC5/ADC.c ****         default: /* Halt CPU in debug mode if resolution is out of valid range */
 647:.\Generated_Source\PSoC5/ADC.c ****             counts = 0;
 648:.\Generated_Source\PSoC5/ADC.c ****             #if(!((ADC_DEFAULT_RANGE == ADC__VSS_TO_VREF) || \
 649:.\Generated_Source\PSoC5/ADC.c ****                  (ADC_DEFAULT_RANGE == ADC__VSSA_TO_VDDA) || \
 650:.\Generated_Source\PSoC5/ADC.c ****                  (ADC_DEFAULT_RANGE == ADC__VSSA_TO_VDAC)) )
 651:.\Generated_Source\PSoC5/ADC.c ****                 diff_zero = 0u;
 652:.\Generated_Source\PSoC5/ADC.c ****             #endif /* End ADC_DEFAULT_RANGE */
 653:.\Generated_Source\PSoC5/ADC.c ****             CYASSERT(0u != 0u);
  55              		.loc 1 653 0
  56 001c 0020     		movs	r0, #0
  57              	.LVL3:
  58 001e FFF7FEFF 		bl	CyHalt
  59              	.LVL4:
 647:.\Generated_Source\PSoC5/ADC.c ****             #if(!((ADC_DEFAULT_RANGE == ADC__VSS_TO_VREF) || \
  60              		.loc 1 647 0
  61 0022 0022     		movs	r2, #0
  62 0024 01E0     		b	.L3
  63              	.LVL5:
  64              	.L6:
 631:.\Generated_Source\PSoC5/ADC.c ****             #if(!((ADC_DEFAULT_RANGE == ADC__VSS_TO_VREF) || \
  65              		.loc 1 631 0
  66 0026 4FF48062 		mov	r2, #1024
  67              	.LVL6:
  68              	.L3:
 654:.\Generated_Source\PSoC5/ADC.c ****             break;
 655:.\Generated_Source\PSoC5/ADC.c ****     }
 656:.\Generated_Source\PSoC5/ADC.c ****     ADC_countsPerVolt = 0; /* Clear obsolete variable */
  69              		.loc 1 656 0
  70 002a 0021     		movs	r1, #0
  71 002c 094B     		ldr	r3, .L9
  72 002e 1980     		strh	r1, [r3]	@ movhi
 657:.\Generated_Source\PSoC5/ADC.c ****     /* Calculate gain in counts per 10 volts with rounding */
 658:.\Generated_Source\PSoC5/ADC.c ****     ADC_countsPer10Volt = (((counts * ADC_10MV_COUNTS) +
  73              		.loc 1 658 0
  74 0030 42F21073 		movw	r3, #10000
  75 0034 03FB02F3 		mul	r3, r3, r2
  76 0038 03F6C413 		addw	r3, r3, #2500
 659:.\Generated_Source\PSoC5/ADC.c ****                         ADC_DEFAULT_REF_VOLTAGE_MV) / (ADC_DEFAULT_REF_VOLTAGE_MV * 2));
  77              		.loc 1 659 0
  78 003c 064A     		ldr	r2, .L9+4
  79              	.LVL7:
  80 003e 82FB0302 		smull	r0, r2, r2, r3
ARM GAS  C:\Users\SUZUKI~1\AppData\Local\Temp\cc5iwTlG.s 			page 14


  81 0042 DB17     		asrs	r3, r3, #31
  82 0044 C3EBE223 		rsb	r3, r3, r2, asr #11
 658:.\Generated_Source\PSoC5/ADC.c ****                         ADC_DEFAULT_REF_VOLTAGE_MV) / (ADC_DEFAULT_REF_VOLTAGE_MV * 2));
  83              		.loc 1 658 0
  84 0048 044A     		ldr	r2, .L9+8
  85 004a 1360     		str	r3, [r2]
 660:.\Generated_Source\PSoC5/ADC.c **** 
 661:.\Generated_Source\PSoC5/ADC.c ****     #if( (ADC_DEFAULT_RANGE == ADC__VSS_TO_VREF) || \
 662:.\Generated_Source\PSoC5/ADC.c ****          (ADC_DEFAULT_RANGE == ADC__VSSA_TO_VDDA) || \
 663:.\Generated_Source\PSoC5/ADC.c ****          (ADC_DEFAULT_RANGE == ADC__VSSA_TO_VDAC) )
 664:.\Generated_Source\PSoC5/ADC.c ****         ADC_shift = 0;
  86              		.loc 1 664 0
  87 004c 044B     		ldr	r3, .L9+12
  88 004e 1980     		strh	r1, [r3]	@ movhi
  89 0050 08BD     		pop	{r3, pc}
  90              	.L10:
  91 0052 00BF     		.align	2
  92              	.L9:
  93 0054 00000000 		.word	ADC_countsPerVolt
  94 0058 AD8BDB68 		.word	1759218605
  95 005c 00000000 		.word	ADC_countsPer10Volt
  96 0060 00000000 		.word	ADC_shift
  97              		.cfi_endproc
  98              	.LFE12:
  99              		.size	ADC_CalcGain, .-ADC_CalcGain
 100              		.section	.text.ADC_Enable,"ax",%progbits
 101              		.align	2
 102              		.global	ADC_Enable
 103              		.thumb
 104              		.thumb_func
 105              		.type	ADC_Enable, %function
 106              	ADC_Enable:
 107              	.LFB2:
 144:.\Generated_Source\PSoC5/ADC.c ****     uint8 tmpReg;
 108              		.loc 1 144 0
 109              		.cfi_startproc
 110              		@ args = 0, pretend = 0, frame = 0
 111              		@ frame_needed = 0, uses_anonymous_args = 0
 112 0000 10B5     		push	{r4, lr}
 113              		.cfi_def_cfa_offset 8
 114              		.cfi_offset 4, -8
 115              		.cfi_offset 14, -4
 147:.\Generated_Source\PSoC5/ADC.c **** 
 116              		.loc 1 147 0
 117 0002 FFF7FEFF 		bl	CyEnterCriticalSection
 118              	.LVL8:
 119 0006 0446     		mov	r4, r0
 120              	.LVL9:
 150:.\Generated_Source\PSoC5/ADC.c **** 
 121              		.loc 1 150 0
 122 0008 1E4A     		ldr	r2, .L13
 123 000a 1378     		ldrb	r3, [r2]	@ zero_extendqisi2
 124 000c 43F00103 		orr	r3, r3, #1
 125 0010 1370     		strb	r3, [r2]
 153:.\Generated_Source\PSoC5/ADC.c **** 
 126              		.loc 1 153 0
 127 0012 1032     		adds	r2, r2, #16
ARM GAS  C:\Users\SUZUKI~1\AppData\Local\Temp\cc5iwTlG.s 			page 15


 128 0014 1378     		ldrb	r3, [r2]	@ zero_extendqisi2
 129 0016 43F00103 		orr	r3, r3, #1
 130 001a 1370     		strb	r3, [r2]
 157:.\Generated_Source\PSoC5/ADC.c ****         ADC_STBY_PWRMGR_CLK_REG |= ADC_STBY_PWR_CLK_EN;
 131              		.loc 1 157 0
 132 001c 193A     		subs	r2, r2, #25
 133 001e 1378     		ldrb	r3, [r2]	@ zero_extendqisi2
 134 0020 43F00203 		orr	r3, r3, #2
 135 0024 1370     		strb	r3, [r2]
 158:.\Generated_Source\PSoC5/ADC.c ****     #endif /* End ADC_DEFAULT_INTERNAL_CLK */
 136              		.loc 1 158 0
 137 0026 1032     		adds	r2, r2, #16
 138 0028 1378     		ldrb	r3, [r2]	@ zero_extendqisi2
 139 002a 43F00203 		orr	r3, r3, #2
 140 002e 1370     		strb	r3, [r2]
 162:.\Generated_Source\PSoC5/ADC.c ****     tmpReg |= ADC_SAR_EN_BUF_VCM_EN;
 141              		.loc 1 162 0
 142 0030 02F5AA52 		add	r2, r2, #5440
 143 0034 1132     		adds	r2, r2, #17
 144 0036 1378     		ldrb	r3, [r2]	@ zero_extendqisi2
 145              	.LVL10:
 169:.\Generated_Source\PSoC5/ADC.c ****     #endif /* ADC_DEFAULT_REFERENCE == ADC__EXT_REF */
 146              		.loc 1 169 0
 147 0038 43F00303 		orr	r3, r3, #3
 148              	.LVL11:
 171:.\Generated_Source\PSoC5/ADC.c **** 
 149              		.loc 1 171 0
 150 003c 1370     		strb	r3, [r2]
 182:.\Generated_Source\PSoC5/ADC.c ****         #else /* INTREF Bypassed of External */
 151              		.loc 1 182 0
 152 003e 1822     		movs	r2, #24
 153 0040 114B     		ldr	r3, .L13+4
 154              	.LVL12:
 155 0042 1A70     		strb	r2, [r3]
 156              	.LVL13:
 192:.\Generated_Source\PSoC5/ADC.c ****     #endif /* ADC_HIGH_POWER_PULSE == 0u */
 157              		.loc 1 192 0
 158 0044 013B     		subs	r3, r3, #1
 159 0046 1A78     		ldrb	r2, [r3]	@ zero_extendqisi2
 160 0048 42F04002 		orr	r2, r2, #64
 161 004c 1A70     		strb	r2, [r3]
 202:.\Generated_Source\PSoC5/ADC.c ****     #endif /* ADC_HIGH_POWER_PULSE == 0u */
 162              		.loc 1 202 0
 163 004e 1A78     		ldrb	r2, [r3]	@ zero_extendqisi2
 164 0050 02F0FC02 		and	r2, r2, #252
 165 0054 1A70     		strb	r2, [r3]
 206:.\Generated_Source\PSoC5/ADC.c ****     /* SAR_HIZ_CLEAR:   Should not be used for LP */
 166              		.loc 1 206 0
 167 0056 CE22     		movs	r2, #206
 168 0058 053B     		subs	r3, r3, #5
 169 005a 1A70     		strb	r2, [r3]
 218:.\Generated_Source\PSoC5/ADC.c **** 
 170              		.loc 1 218 0
 171 005c 0222     		movs	r2, #2
 172 005e A3F59753 		sub	r3, r3, #4832
 173 0062 0C3B     		subs	r3, r3, #12
 174 0064 1A70     		strb	r2, [r3]
ARM GAS  C:\Users\SUZUKI~1\AppData\Local\Temp\cc5iwTlG.s 			page 16


 221:.\Generated_Source\PSoC5/ADC.c **** 
 175              		.loc 1 221 0
 176 0066 094A     		ldr	r2, .L13+8
 177 0068 1378     		ldrb	r3, [r2]	@ zero_extendqisi2
 178 006a 43F00803 		orr	r3, r3, #8
 179 006e 1370     		strb	r3, [r2]
 223:.\Generated_Source\PSoC5/ADC.c **** 
 180              		.loc 1 223 0
 181 0070 0A20     		movs	r0, #10
 182 0072 FFF7FEFF 		bl	CyDelayUs
 183              	.LVL14:
 227:.\Generated_Source\PSoC5/ADC.c ****     #endif   /* End ADC_IRQ_REMOVE */
 184              		.loc 1 227 0
 185 0076 0122     		movs	r2, #1
 186 0078 054B     		ldr	r3, .L13+12
 187 007a 1A60     		str	r2, [r3]
 230:.\Generated_Source\PSoC5/ADC.c **** }
 188              		.loc 1 230 0
 189 007c 2046     		mov	r0, r4
 190 007e FFF7FEFF 		bl	CyExitCriticalSection
 191              	.LVL15:
 192 0082 10BD     		pop	{r4, pc}
 193              	.LVL16:
 194              	.L14:
 195              		.align	2
 196              	.L13:
 197 0084 AB430040 		.word	1073759147
 198 0088 06590040 		.word	1073764614
 199 008c 275B0040 		.word	1073765159
 200 0090 80E200E0 		.word	-536812928
 201              		.cfi_endproc
 202              	.LFE2:
 203              		.size	ADC_Enable, .-ADC_Enable
 204              		.section	.text.ADC_Stop,"ax",%progbits
 205              		.align	2
 206              		.global	ADC_Stop
 207              		.thumb
 208              		.thumb_func
 209              		.type	ADC_Stop, %function
 210              	ADC_Stop:
 211              	.LFB3:
 249:.\Generated_Source\PSoC5/ADC.c ****     uint8 enableInterrupts;
 212              		.loc 1 249 0
 213              		.cfi_startproc
 214              		@ args = 0, pretend = 0, frame = 0
 215              		@ frame_needed = 0, uses_anonymous_args = 0
 216 0000 08B5     		push	{r3, lr}
 217              		.cfi_def_cfa_offset 8
 218              		.cfi_offset 3, -8
 219              		.cfi_offset 14, -4
 251:.\Generated_Source\PSoC5/ADC.c **** 
 220              		.loc 1 251 0
 221 0002 FFF7FEFF 		bl	CyEnterCriticalSection
 222              	.LVL17:
 254:.\Generated_Source\PSoC5/ADC.c ****     /* Disable the SAR ADC block in Active Power Mode */
 223              		.loc 1 254 0
 224 0006 0F4A     		ldr	r2, .L17
ARM GAS  C:\Users\SUZUKI~1\AppData\Local\Temp\cc5iwTlG.s 			page 17


 225 0008 1378     		ldrb	r3, [r2]	@ zero_extendqisi2
 226 000a 03F0FE03 		and	r3, r3, #254
 227 000e 1370     		strb	r3, [r2]
 256:.\Generated_Source\PSoC5/ADC.c ****     /* Disable the SAR ADC in Standby Power Mode */
 228              		.loc 1 256 0
 229 0010 A2F5AA52 		sub	r2, r2, #5440
 230 0014 153A     		subs	r2, r2, #21
 231 0016 1378     		ldrb	r3, [r2]	@ zero_extendqisi2
 232 0018 03F0FE03 		and	r3, r3, #254
 233 001c 1370     		strb	r3, [r2]
 258:.\Generated_Source\PSoC5/ADC.c **** 
 234              		.loc 1 258 0
 235 001e 1032     		adds	r2, r2, #16
 236 0020 1378     		ldrb	r3, [r2]	@ zero_extendqisi2
 237 0022 03F0FE03 		and	r3, r3, #254
 238 0026 1370     		strb	r3, [r2]
 262:.\Generated_Source\PSoC5/ADC.c ****         ADC_STBY_PWRMGR_CLK_REG &= (uint8)~ADC_STBY_PWR_CLK_EN;
 239              		.loc 1 262 0
 240 0028 193A     		subs	r2, r2, #25
 241 002a 1378     		ldrb	r3, [r2]	@ zero_extendqisi2
 242 002c 03F0FD03 		and	r3, r3, #253
 243 0030 1370     		strb	r3, [r2]
 263:.\Generated_Source\PSoC5/ADC.c ****     #endif /* End ADC_DEFAULT_INTERNAL_CLK */
 244              		.loc 1 263 0
 245 0032 1032     		adds	r2, r2, #16
 246 0034 1378     		ldrb	r3, [r2]	@ zero_extendqisi2
 247 0036 03F0FD03 		and	r3, r3, #253
 248 003a 1370     		strb	r3, [r2]
 266:.\Generated_Source\PSoC5/ADC.c **** 
 249              		.loc 1 266 0
 250 003c FFF7FEFF 		bl	CyExitCriticalSection
 251              	.LVL18:
 252 0040 08BD     		pop	{r3, pc}
 253              	.L18:
 254 0042 00BF     		.align	2
 255              	.L17:
 256 0044 00590040 		.word	1073764608
 257              		.cfi_endproc
 258              	.LFE3:
 259              		.size	ADC_Stop, .-ADC_Stop
 260              		.section	.text.ADC_SetPower,"ax",%progbits
 261              		.align	2
 262              		.global	ADC_SetPower
 263              		.thumb
 264              		.thumb_func
 265              		.type	ADC_SetPower, %function
 266              	ADC_SetPower:
 267              	.LFB4:
 291:.\Generated_Source\PSoC5/ADC.c ****     uint8 tmpReg;
 268              		.loc 1 291 0
 269              		.cfi_startproc
 270              		@ args = 0, pretend = 0, frame = 0
 271              		@ frame_needed = 0, uses_anonymous_args = 0
 272              		@ link register save eliminated.
 273              	.LVL19:
 295:.\Generated_Source\PSoC5/ADC.c **** 
 274              		.loc 1 295 0
ARM GAS  C:\Users\SUZUKI~1\AppData\Local\Temp\cc5iwTlG.s 			page 18


 275 0000 00F00300 		and	r0, r0, #3
 276              	.LVL20:
 298:.\Generated_Source\PSoC5/ADC.c ****     tmpReg |= (uint8)(power << ADC_SAR_POWER_SHIFT);
 277              		.loc 1 298 0
 278 0004 034A     		ldr	r2, .L20
 279 0006 1378     		ldrb	r3, [r2]	@ zero_extendqisi2
 280 0008 03F03F03 		and	r3, r3, #63
 281              	.LVL21:
 299:.\Generated_Source\PSoC5/ADC.c ****     ADC_SAR_CSR0_REG = tmpReg;
 282              		.loc 1 299 0
 283 000c 43EA8010 		orr	r0, r3, r0, lsl #6
 284              	.LVL22:
 300:.\Generated_Source\PSoC5/ADC.c **** }
 285              		.loc 1 300 0
 286 0010 1070     		strb	r0, [r2]
 287 0012 7047     		bx	lr
 288              	.L21:
 289              		.align	2
 290              	.L20:
 291 0014 00590040 		.word	1073764608
 292              		.cfi_endproc
 293              	.LFE4:
 294              		.size	ADC_SetPower, .-ADC_SetPower
 295              		.section	.text.ADC_SetResolution,"ax",%progbits
 296              		.align	2
 297              		.global	ADC_SetResolution
 298              		.thumb
 299              		.thumb_func
 300              		.type	ADC_SetResolution, %function
 301              	ADC_SetResolution:
 302              	.LFB5:
 341:.\Generated_Source\PSoC5/ADC.c ****     uint8 tmpReg;
 303              		.loc 1 341 0
 304              		.cfi_startproc
 305              		@ args = 0, pretend = 0, frame = 0
 306              		@ frame_needed = 0, uses_anonymous_args = 0
 307              	.LVL23:
 308 0000 10B5     		push	{r4, lr}
 309              		.cfi_def_cfa_offset 8
 310              		.cfi_offset 4, -8
 311              		.cfi_offset 14, -4
 312 0002 0446     		mov	r4, r0
 345:.\Generated_Source\PSoC5/ADC.c ****     {
 313              		.loc 1 345 0
 314 0004 0A28     		cmp	r0, #10
 315 0006 0DD0     		beq	.L27
 316 0008 0C28     		cmp	r0, #12
 317 000a 02D0     		beq	.L25
 318 000c 0828     		cmp	r0, #8
 319 000e 04D1     		bne	.L28
 320 0010 01E0     		b	.L26
 321              	.L25:
 348:.\Generated_Source\PSoC5/ADC.c ****             break;
 322              		.loc 1 348 0
 323 0012 C222     		movs	r2, #194
 324 0014 07E0     		b	.L24
 325              	.L26:
ARM GAS  C:\Users\SUZUKI~1\AppData\Local\Temp\cc5iwTlG.s 			page 19


 326              	.LVL24:
 354:.\Generated_Source\PSoC5/ADC.c ****             break;
 327              		.loc 1 354 0
 328 0016 4222     		movs	r2, #66
 355:.\Generated_Source\PSoC5/ADC.c ****         default:
 329              		.loc 1 355 0
 330 0018 05E0     		b	.L24
 331              	.LVL25:
 332              	.L28:
 359:.\Generated_Source\PSoC5/ADC.c ****             break;
 333              		.loc 1 359 0
 334 001a 0020     		movs	r0, #0
 335              	.LVL26:
 336 001c FFF7FEFF 		bl	CyHalt
 337              	.LVL27:
 357:.\Generated_Source\PSoC5/ADC.c ****             /* Halt CPU in debug mode if resolution is out of valid range */
 338              		.loc 1 357 0
 339 0020 C222     		movs	r2, #194
 340 0022 00E0     		b	.L24
 341              	.LVL28:
 342              	.L27:
 351:.\Generated_Source\PSoC5/ADC.c ****             break;
 343              		.loc 1 351 0
 344 0024 8222     		movs	r2, #130
 345              	.LVL29:
 346              	.L24:
 362:.\Generated_Source\PSoC5/ADC.c **** 
 347              		.loc 1 362 0
 348 0026 034B     		ldr	r3, .L30
 349 0028 1A70     		strb	r2, [r3]
 365:.\Generated_Source\PSoC5/ADC.c **** }
 350              		.loc 1 365 0
 351 002a 2046     		mov	r0, r4
 352 002c FFF7FEFF 		bl	ADC_CalcGain
 353              	.LVL30:
 354 0030 10BD     		pop	{r4, pc}
 355              	.L31:
 356 0032 00BF     		.align	2
 357              	.L30:
 358 0034 02590040 		.word	1073764610
 359              		.cfi_endproc
 360              	.LFE5:
 361              		.size	ADC_SetResolution, .-ADC_SetResolution
 362              		.section	.text.ADC_Init,"ax",%progbits
 363              		.align	2
 364              		.global	ADC_Init
 365              		.thumb
 366              		.thumb_func
 367              		.type	ADC_Init, %function
 368              	ADC_Init:
 369              	.LFB1:
 107:.\Generated_Source\PSoC5/ADC.c **** 
 370              		.loc 1 107 0
 371              		.cfi_startproc
 372              		@ args = 0, pretend = 0, frame = 0
 373              		@ frame_needed = 0, uses_anonymous_args = 0
 374 0000 08B5     		push	{r3, lr}
ARM GAS  C:\Users\SUZUKI~1\AppData\Local\Temp\cc5iwTlG.s 			page 20


 375              		.cfi_def_cfa_offset 8
 376              		.cfi_offset 3, -8
 377              		.cfi_offset 14, -4
 111:.\Generated_Source\PSoC5/ADC.c ****     #endif /* End ADC_DEFAULT_INTERNAL_CLK */
 378              		.loc 1 111 0
 379 0002 1020     		movs	r0, #16
 380 0004 FFF7FEFF 		bl	ADC_theACLK_SetModeRegister
 381              	.LVL31:
 116:.\Generated_Source\PSoC5/ADC.c ****         (void)CyIntSetVector(ADC_INTC_NUMBER, &ADC_ISR);
 382              		.loc 1 116 0
 383 0008 0020     		movs	r0, #0
 384 000a 0721     		movs	r1, #7
 385 000c FFF7FEFF 		bl	CyIntSetPriority
 386              	.LVL32:
 117:.\Generated_Source\PSoC5/ADC.c ****     #endif   /* End ADC_IRQ_REMOVE */
 387              		.loc 1 117 0
 388 0010 0020     		movs	r0, #0
 389 0012 0749     		ldr	r1, .L34
 390 0014 FFF7FEFF 		bl	CyIntSetVector
 391              	.LVL33:
 121:.\Generated_Source\PSoC5/ADC.c **** 
 392              		.loc 1 121 0
 393 0018 064A     		ldr	r2, .L34+4
 394 001a 1378     		ldrb	r3, [r2]	@ zero_extendqisi2
 395 001c 43F00603 		orr	r3, r3, #6
 396 0020 1370     		strb	r3, [r2]
 124:.\Generated_Source\PSoC5/ADC.c ****     ADC_offset = 0;
 397              		.loc 1 124 0
 398 0022 0820     		movs	r0, #8
 399 0024 FFF7FEFF 		bl	ADC_SetResolution
 400              	.LVL34:
 125:.\Generated_Source\PSoC5/ADC.c **** }
 401              		.loc 1 125 0
 402 0028 0022     		movs	r2, #0
 403 002a 034B     		ldr	r3, .L34+8
 404 002c 1A80     		strh	r2, [r3]	@ movhi
 405 002e 08BD     		pop	{r3, pc}
 406              	.L35:
 407              		.align	2
 408              	.L34:
 409 0030 00000000 		.word	ADC_ISR
 410 0034 01590040 		.word	1073764609
 411 0038 00000000 		.word	ADC_offset
 412              		.cfi_endproc
 413              	.LFE1:
 414              		.size	ADC_Init, .-ADC_Init
 415              		.section	.text.ADC_Start,"ax",%progbits
 416              		.align	2
 417              		.global	ADC_Start
 418              		.thumb
 419              		.thumb_func
 420              		.type	ADC_Start, %function
 421              	ADC_Start:
 422              	.LFB0:
  75:.\Generated_Source\PSoC5/ADC.c **** 
 423              		.loc 1 75 0
 424              		.cfi_startproc
ARM GAS  C:\Users\SUZUKI~1\AppData\Local\Temp\cc5iwTlG.s 			page 21


 425              		@ args = 0, pretend = 0, frame = 0
 426              		@ frame_needed = 0, uses_anonymous_args = 0
 427 0000 08B5     		push	{r3, lr}
 428              		.cfi_def_cfa_offset 8
 429              		.cfi_offset 3, -8
 430              		.cfi_offset 14, -4
  78:.\Generated_Source\PSoC5/ADC.c ****     {
 431              		.loc 1 78 0
 432 0002 054B     		ldr	r3, .L39
 433 0004 1B78     		ldrb	r3, [r3]	@ zero_extendqisi2
 434 0006 23B9     		cbnz	r3, .L37
  80:.\Generated_Source\PSoC5/ADC.c ****         ADC_initVar = 1u;
 435              		.loc 1 80 0
 436 0008 FFF7FEFF 		bl	ADC_Init
 437              	.LVL35:
  81:.\Generated_Source\PSoC5/ADC.c ****     }
 438              		.loc 1 81 0
 439 000c 0122     		movs	r2, #1
 440 000e 024B     		ldr	r3, .L39
 441 0010 1A70     		strb	r2, [r3]
 442              	.L37:
  83:.\Generated_Source\PSoC5/ADC.c **** }
 443              		.loc 1 83 0
 444 0012 FFF7FEFF 		bl	ADC_Enable
 445              	.LVL36:
 446 0016 08BD     		pop	{r3, pc}
 447              	.L40:
 448              		.align	2
 449              	.L39:
 450 0018 00000000 		.word	.LANCHOR0
 451              		.cfi_endproc
 452              	.LFE0:
 453              		.size	ADC_Start, .-ADC_Start
 454              		.section	.text.ADC_StartConvert,"ax",%progbits
 455              		.align	2
 456              		.global	ADC_StartConvert
 457              		.thumb
 458              		.thumb_func
 459              		.type	ADC_StartConvert, %function
 460              	ADC_StartConvert:
 461              	.LFB6:
 402:.\Generated_Source\PSoC5/ADC.c ****         #if(ADC_DEFAULT_CONV_MODE != ADC__FREE_RUNNING)  /* If software triggered mode */
 462              		.loc 1 402 0
 463              		.cfi_startproc
 464              		@ args = 0, pretend = 0, frame = 0
 465              		@ frame_needed = 0, uses_anonymous_args = 0
 466              		@ link register save eliminated.
 404:.\Generated_Source\PSoC5/ADC.c ****         #endif /* End ADC_DEFAULT_CONV_MODE */
 467              		.loc 1 404 0
 468 0000 044B     		ldr	r3, .L42
 469 0002 1A78     		ldrb	r2, [r3]	@ zero_extendqisi2
 470 0004 02F0FB02 		and	r2, r2, #251
 471 0008 1A70     		strb	r2, [r3]
 408:.\Generated_Source\PSoC5/ADC.c ****     }
 472              		.loc 1 408 0
 473 000a 1A78     		ldrb	r2, [r3]	@ zero_extendqisi2
 474 000c 42F00102 		orr	r2, r2, #1
ARM GAS  C:\Users\SUZUKI~1\AppData\Local\Temp\cc5iwTlG.s 			page 22


 475 0010 1A70     		strb	r2, [r3]
 476 0012 7047     		bx	lr
 477              	.L43:
 478              		.align	2
 479              	.L42:
 480 0014 00590040 		.word	1073764608
 481              		.cfi_endproc
 482              	.LFE6:
 483              		.size	ADC_StartConvert, .-ADC_StartConvert
 484              		.section	.text.ADC_StopConvert,"ax",%progbits
 485              		.align	2
 486              		.global	ADC_StopConvert
 487              		.thumb
 488              		.thumb_func
 489              		.type	ADC_StopConvert, %function
 490              	ADC_StopConvert:
 491              	.LFB7:
 436:.\Generated_Source\PSoC5/ADC.c ****         /* Stop all conversions */
 492              		.loc 1 436 0
 493              		.cfi_startproc
 494              		@ args = 0, pretend = 0, frame = 0
 495              		@ frame_needed = 0, uses_anonymous_args = 0
 496              		@ link register save eliminated.
 438:.\Generated_Source\PSoC5/ADC.c **** 
 497              		.loc 1 438 0
 498 0000 044B     		ldr	r3, .L45
 499 0002 1A78     		ldrb	r2, [r3]	@ zero_extendqisi2
 500 0004 02F0FE02 		and	r2, r2, #254
 501 0008 1A70     		strb	r2, [r3]
 442:.\Generated_Source\PSoC5/ADC.c ****         #endif /* End ADC_DEFAULT_CONV_MODE */
 502              		.loc 1 442 0
 503 000a 1A78     		ldrb	r2, [r3]	@ zero_extendqisi2
 504 000c 42F00402 		orr	r2, r2, #4
 505 0010 1A70     		strb	r2, [r3]
 506 0012 7047     		bx	lr
 507              	.L46:
 508              		.align	2
 509              	.L45:
 510 0014 00590040 		.word	1073764608
 511              		.cfi_endproc
 512              	.LFE7:
 513              		.size	ADC_StopConvert, .-ADC_StopConvert
 514              		.section	.text.ADC_IsEndConversion,"ax",%progbits
 515              		.align	2
 516              		.global	ADC_IsEndConversion
 517              		.thumb
 518              		.thumb_func
 519              		.type	ADC_IsEndConversion, %function
 520              	ADC_IsEndConversion:
 521              	.LFB8:
 476:.\Generated_Source\PSoC5/ADC.c ****     uint8 status;
 522              		.loc 1 476 0
 523              		.cfi_startproc
 524              		@ args = 0, pretend = 0, frame = 0
 525              		@ frame_needed = 0, uses_anonymous_args = 0
 526              	.LVL37:
 527 0000 10B5     		push	{r4, lr}
ARM GAS  C:\Users\SUZUKI~1\AppData\Local\Temp\cc5iwTlG.s 			page 23


 528              		.cfi_def_cfa_offset 8
 529              		.cfi_offset 4, -8
 530              		.cfi_offset 14, -4
 531              	.L49:
 481:.\Generated_Source\PSoC5/ADC.c ****     } while ((status != ADC_SAR_EOF_1) && (retMode == ADC_WAIT_FOR_RESULT));
 532              		.loc 1 481 0 discriminator 2
 533 0002 074B     		ldr	r3, .L52
 534 0004 1B78     		ldrb	r3, [r3]	@ zero_extendqisi2
 535              	.LVL38:
 482:.\Generated_Source\PSoC5/ADC.c ****     /* If convertion complete, wait until EOF bit released */
 536              		.loc 1 482 0 discriminator 2
 537 0006 13F00104 		ands	r4, r3, #1
 538 000a 01D1     		bne	.L48
 482:.\Generated_Source\PSoC5/ADC.c ****     /* If convertion complete, wait until EOF bit released */
 539              		.loc 1 482 0 is_stmt 0 discriminator 1
 540 000c 0028     		cmp	r0, #0
 541 000e F8D0     		beq	.L49
 542              	.L48:
 484:.\Generated_Source\PSoC5/ADC.c ****     {
 543              		.loc 1 484 0 is_stmt 1
 544 0010 24B1     		cbz	r4, .L50
 487:.\Generated_Source\PSoC5/ADC.c ****         /* Do the unconditional read operation of the CSR1 register to make sure the EOC bit has be
 545              		.loc 1 487 0
 546 0012 0120     		movs	r0, #1
 547              	.LVL39:
 548 0014 FFF7FEFF 		bl	CyDelayUs
 549              	.LVL40:
 489:.\Generated_Source\PSoC5/ADC.c ****     }
 550              		.loc 1 489 0
 551 0018 014B     		ldr	r3, .L52
 552 001a 1B78     		ldrb	r3, [r3]	@ zero_extendqisi2
 553              	.L50:
 493:.\Generated_Source\PSoC5/ADC.c **** 
 554              		.loc 1 493 0
 555 001c 2046     		mov	r0, r4
 556 001e 10BD     		pop	{r4, pc}
 557              	.L53:
 558              		.align	2
 559              	.L52:
 560 0020 01590040 		.word	1073764609
 561              		.cfi_endproc
 562              	.LFE8:
 563              		.size	ADC_IsEndConversion, .-ADC_IsEndConversion
 564              		.section	.text.ADC_GetResult8,"ax",%progbits
 565              		.align	2
 566              		.global	ADC_GetResult8
 567              		.thumb
 568              		.thumb_func
 569              		.type	ADC_GetResult8, %function
 570              	ADC_GetResult8:
 571              	.LFB9:
 521:.\Generated_Source\PSoC5/ADC.c ****     return( (int8)ADC_SAR_WRK0_REG - (int8)ADC_shift);
 572              		.loc 1 521 0
 573              		.cfi_startproc
 574              		@ args = 0, pretend = 0, frame = 0
 575              		@ frame_needed = 0, uses_anonymous_args = 0
 576              		@ link register save eliminated.
ARM GAS  C:\Users\SUZUKI~1\AppData\Local\Temp\cc5iwTlG.s 			page 24


 522:.\Generated_Source\PSoC5/ADC.c **** }
 577              		.loc 1 522 0
 578 0000 034B     		ldr	r3, .L55
 579 0002 1B78     		ldrb	r3, [r3]	@ zero_extendqisi2
 580 0004 034A     		ldr	r2, .L55+4
 581 0006 1088     		ldrh	r0, [r2]
 582 0008 181A     		subs	r0, r3, r0
 523:.\Generated_Source\PSoC5/ADC.c **** 
 583              		.loc 1 523 0
 584 000a 40B2     		sxtb	r0, r0
 585 000c 7047     		bx	lr
 586              	.L56:
 587 000e 00BF     		.align	2
 588              	.L55:
 589 0010 A05B0040 		.word	1073765280
 590 0014 00000000 		.word	ADC_shift
 591              		.cfi_endproc
 592              	.LFE9:
 593              		.size	ADC_GetResult8, .-ADC_GetResult8
 594              		.section	.text.ADC_GetResult16,"ax",%progbits
 595              		.align	2
 596              		.global	ADC_GetResult16
 597              		.thumb
 598              		.thumb_func
 599              		.type	ADC_GetResult16, %function
 600              	ADC_GetResult16:
 601              	.LFB10:
 551:.\Generated_Source\PSoC5/ADC.c ****     uint16 res;
 602              		.loc 1 551 0
 603              		.cfi_startproc
 604              		@ args = 0, pretend = 0, frame = 0
 605              		@ frame_needed = 0, uses_anonymous_args = 0
 606              		@ link register save eliminated.
 554:.\Generated_Source\PSoC5/ADC.c **** 
 607              		.loc 1 554 0
 608 0000 034B     		ldr	r3, .L58
 609 0002 1B88     		ldrh	r3, [r3]
 610              	.LVL41:
 556:.\Generated_Source\PSoC5/ADC.c **** }
 611              		.loc 1 556 0
 612 0004 034A     		ldr	r2, .L58+4
 613 0006 1088     		ldrh	r0, [r2]
 614 0008 181A     		subs	r0, r3, r0
 557:.\Generated_Source\PSoC5/ADC.c **** 
 615              		.loc 1 557 0
 616 000a 00B2     		sxth	r0, r0
 617 000c 7047     		bx	lr
 618              	.L59:
 619 000e 00BF     		.align	2
 620              	.L58:
 621 0010 A05B0040 		.word	1073765280
 622 0014 00000000 		.word	ADC_shift
 623              		.cfi_endproc
 624              	.LFE10:
 625              		.size	ADC_GetResult16, .-ADC_GetResult16
 626              		.section	.text.ADC_SetOffset,"ax",%progbits
 627              		.align	2
ARM GAS  C:\Users\SUZUKI~1\AppData\Local\Temp\cc5iwTlG.s 			page 25


 628              		.global	ADC_SetOffset
 629              		.thumb
 630              		.thumb_func
 631              		.type	ADC_SetOffset, %function
 632              	ADC_SetOffset:
 633              	.LFB11:
 586:.\Generated_Source\PSoC5/ADC.c ****     ADC_offset = offset;
 634              		.loc 1 586 0
 635              		.cfi_startproc
 636              		@ args = 0, pretend = 0, frame = 0
 637              		@ frame_needed = 0, uses_anonymous_args = 0
 638              		@ link register save eliminated.
 639              	.LVL42:
 587:.\Generated_Source\PSoC5/ADC.c **** }
 640              		.loc 1 587 0
 641 0000 014B     		ldr	r3, .L61
 642 0002 1880     		strh	r0, [r3]	@ movhi
 643 0004 7047     		bx	lr
 644              	.L62:
 645 0006 00BF     		.align	2
 646              	.L61:
 647 0008 00000000 		.word	ADC_offset
 648              		.cfi_endproc
 649              	.LFE11:
 650              		.size	ADC_SetOffset, .-ADC_SetOffset
 651              		.section	.text.ADC_SetGain,"ax",%progbits
 652              		.align	2
 653              		.global	ADC_SetGain
 654              		.thumb
 655              		.thumb_func
 656              		.type	ADC_SetGain, %function
 657              	ADC_SetGain:
 658              	.LFB13:
 665:.\Generated_Source\PSoC5/ADC.c ****     #else
 666:.\Generated_Source\PSoC5/ADC.c ****         ADC_shift = diff_zero;
 667:.\Generated_Source\PSoC5/ADC.c ****     #endif /* End ADC_DEFAULT_RANGE */
 668:.\Generated_Source\PSoC5/ADC.c **** }
 669:.\Generated_Source\PSoC5/ADC.c **** 
 670:.\Generated_Source\PSoC5/ADC.c **** 
 671:.\Generated_Source\PSoC5/ADC.c **** /*******************************************************************************
 672:.\Generated_Source\PSoC5/ADC.c **** * Function Name: ADC_SetGain
 673:.\Generated_Source\PSoC5/ADC.c **** ********************************************************************************
 674:.\Generated_Source\PSoC5/ADC.c **** *
 675:.\Generated_Source\PSoC5/ADC.c **** * Summary:
 676:.\Generated_Source\PSoC5/ADC.c **** *  Sets the ADC gain in counts per volt for the voltage conversion functions
 677:.\Generated_Source\PSoC5/ADC.c **** *  that follow. This value is set by default by the reference and input range
 678:.\Generated_Source\PSoC5/ADC.c **** *  settings. It should only be used to further calibrate the ADC with a known
 679:.\Generated_Source\PSoC5/ADC.c **** *  input or if the ADC is using an external reference.
 680:.\Generated_Source\PSoC5/ADC.c **** *
 681:.\Generated_Source\PSoC5/ADC.c **** * Parameters:
 682:.\Generated_Source\PSoC5/ADC.c **** *  int16 adcGain counts per volt
 683:.\Generated_Source\PSoC5/ADC.c **** *
 684:.\Generated_Source\PSoC5/ADC.c **** * Return:
 685:.\Generated_Source\PSoC5/ADC.c **** *  None.
 686:.\Generated_Source\PSoC5/ADC.c **** *
 687:.\Generated_Source\PSoC5/ADC.c **** * Global Variables:
 688:.\Generated_Source\PSoC5/ADC.c **** *  ADC_countsPer10Volt variable modified. This variable is used
ARM GAS  C:\Users\SUZUKI~1\AppData\Local\Temp\cc5iwTlG.s 			page 26


 689:.\Generated_Source\PSoC5/ADC.c **** *  for gain calibration purpose.
 690:.\Generated_Source\PSoC5/ADC.c **** *
 691:.\Generated_Source\PSoC5/ADC.c **** *******************************************************************************/
 692:.\Generated_Source\PSoC5/ADC.c **** void ADC_SetGain(int16 adcGain)
 693:.\Generated_Source\PSoC5/ADC.c **** {
 659              		.loc 1 693 0
 660              		.cfi_startproc
 661              		@ args = 0, pretend = 0, frame = 0
 662              		@ frame_needed = 0, uses_anonymous_args = 0
 663              		@ link register save eliminated.
 664              	.LVL43:
 694:.\Generated_Source\PSoC5/ADC.c ****     ADC_countsPer10Volt = (int32)adcGain * 10;
 665              		.loc 1 694 0
 666 0000 00EB8000 		add	r0, r0, r0, lsl #2
 667              	.LVL44:
 668 0004 4000     		lsls	r0, r0, #1
 669 0006 014B     		ldr	r3, .L64
 670 0008 1860     		str	r0, [r3]
 671 000a 7047     		bx	lr
 672              	.L65:
 673              		.align	2
 674              	.L64:
 675 000c 00000000 		.word	ADC_countsPer10Volt
 676              		.cfi_endproc
 677              	.LFE13:
 678              		.size	ADC_SetGain, .-ADC_SetGain
 679              		.section	.text.ADC_SetScaledGain,"ax",%progbits
 680              		.align	2
 681              		.global	ADC_SetScaledGain
 682              		.thumb
 683              		.thumb_func
 684              		.type	ADC_SetScaledGain, %function
 685              	ADC_SetScaledGain:
 686              	.LFB14:
 695:.\Generated_Source\PSoC5/ADC.c **** }
 696:.\Generated_Source\PSoC5/ADC.c **** 
 697:.\Generated_Source\PSoC5/ADC.c **** 
 698:.\Generated_Source\PSoC5/ADC.c **** /*******************************************************************************
 699:.\Generated_Source\PSoC5/ADC.c **** * Function Name: ADC_SetScaledGain
 700:.\Generated_Source\PSoC5/ADC.c **** ********************************************************************************
 701:.\Generated_Source\PSoC5/ADC.c **** *
 702:.\Generated_Source\PSoC5/ADC.c **** * Summary:
 703:.\Generated_Source\PSoC5/ADC.c **** *  Sets the ADC gain in counts per 10 volt for the voltage conversion functions
 704:.\Generated_Source\PSoC5/ADC.c **** *  that follow. This value is set by default by the reference and input range
 705:.\Generated_Source\PSoC5/ADC.c **** *  settings. It should only be used to further calibrate the ADC with a known
 706:.\Generated_Source\PSoC5/ADC.c **** *  input or if the ADC is using an external reference.
 707:.\Generated_Source\PSoC5/ADC.c **** *
 708:.\Generated_Source\PSoC5/ADC.c **** * Parameters:
 709:.\Generated_Source\PSoC5/ADC.c **** *  int32 adcGain  counts per 10 volt
 710:.\Generated_Source\PSoC5/ADC.c **** *
 711:.\Generated_Source\PSoC5/ADC.c **** * Return:
 712:.\Generated_Source\PSoC5/ADC.c **** *  None.
 713:.\Generated_Source\PSoC5/ADC.c **** *
 714:.\Generated_Source\PSoC5/ADC.c **** * Global Variables:
 715:.\Generated_Source\PSoC5/ADC.c **** *  ADC_countsPer10Volt variable modified. This variable is used
 716:.\Generated_Source\PSoC5/ADC.c **** *  for gain calibration purpose.
 717:.\Generated_Source\PSoC5/ADC.c **** *
ARM GAS  C:\Users\SUZUKI~1\AppData\Local\Temp\cc5iwTlG.s 			page 27


 718:.\Generated_Source\PSoC5/ADC.c **** *******************************************************************************/
 719:.\Generated_Source\PSoC5/ADC.c **** void ADC_SetScaledGain(int32 adcGain)
 720:.\Generated_Source\PSoC5/ADC.c **** {
 687              		.loc 1 720 0
 688              		.cfi_startproc
 689              		@ args = 0, pretend = 0, frame = 0
 690              		@ frame_needed = 0, uses_anonymous_args = 0
 691              		@ link register save eliminated.
 692              	.LVL45:
 721:.\Generated_Source\PSoC5/ADC.c ****     ADC_countsPer10Volt = adcGain;
 693              		.loc 1 721 0
 694 0000 014B     		ldr	r3, .L67
 695 0002 1860     		str	r0, [r3]
 696 0004 7047     		bx	lr
 697              	.L68:
 698 0006 00BF     		.align	2
 699              	.L67:
 700 0008 00000000 		.word	ADC_countsPer10Volt
 701              		.cfi_endproc
 702              	.LFE14:
 703              		.size	ADC_SetScaledGain, .-ADC_SetScaledGain
 704              		.section	.text.ADC_CountsTo_mVolts,"ax",%progbits
 705              		.align	2
 706              		.global	ADC_CountsTo_mVolts
 707              		.thumb
 708              		.thumb_func
 709              		.type	ADC_CountsTo_mVolts, %function
 710              	ADC_CountsTo_mVolts:
 711              	.LFB15:
 722:.\Generated_Source\PSoC5/ADC.c **** }
 723:.\Generated_Source\PSoC5/ADC.c **** 
 724:.\Generated_Source\PSoC5/ADC.c **** 
 725:.\Generated_Source\PSoC5/ADC.c **** /*******************************************************************************
 726:.\Generated_Source\PSoC5/ADC.c **** * Function Name: ADC_CountsTo_mVolts
 727:.\Generated_Source\PSoC5/ADC.c **** ********************************************************************************
 728:.\Generated_Source\PSoC5/ADC.c **** *
 729:.\Generated_Source\PSoC5/ADC.c **** * Summary:
 730:.\Generated_Source\PSoC5/ADC.c **** *  Converts the ADC output to millivolts as a 16-bit integer.
 731:.\Generated_Source\PSoC5/ADC.c **** *
 732:.\Generated_Source\PSoC5/ADC.c **** * Parameters:
 733:.\Generated_Source\PSoC5/ADC.c **** *  int16 adcCounts:  Result from the ADC conversion
 734:.\Generated_Source\PSoC5/ADC.c **** *
 735:.\Generated_Source\PSoC5/ADC.c **** * Return:
 736:.\Generated_Source\PSoC5/ADC.c **** *  int16 Result in mVolts
 737:.\Generated_Source\PSoC5/ADC.c **** *
 738:.\Generated_Source\PSoC5/ADC.c **** * Global Variables:
 739:.\Generated_Source\PSoC5/ADC.c **** *  ADC_offset variable used.
 740:.\Generated_Source\PSoC5/ADC.c **** *  ADC_countsPer10Volt variable used.
 741:.\Generated_Source\PSoC5/ADC.c **** *
 742:.\Generated_Source\PSoC5/ADC.c **** *******************************************************************************/
 743:.\Generated_Source\PSoC5/ADC.c **** int16 ADC_CountsTo_mVolts(int16 adcCounts)
 744:.\Generated_Source\PSoC5/ADC.c **** {
 712              		.loc 1 744 0
 713              		.cfi_startproc
 714              		@ args = 0, pretend = 0, frame = 0
 715              		@ frame_needed = 0, uses_anonymous_args = 0
 716              		@ link register save eliminated.
ARM GAS  C:\Users\SUZUKI~1\AppData\Local\Temp\cc5iwTlG.s 			page 28


 717              	.LVL46:
 745:.\Generated_Source\PSoC5/ADC.c ****     int16 mVolts;
 746:.\Generated_Source\PSoC5/ADC.c ****     int32 countsPer10Volt;
 747:.\Generated_Source\PSoC5/ADC.c **** 
 748:.\Generated_Source\PSoC5/ADC.c ****     if(ADC_countsPerVolt != 0)
 718              		.loc 1 748 0
 719 0000 114B     		ldr	r3, .L74
 720 0002 1B88     		ldrh	r3, [r3]
 721 0004 9BB2     		uxth	r3, r3
 722 0006 33B1     		cbz	r3, .L70
 749:.\Generated_Source\PSoC5/ADC.c ****     {   /* Support obsolete method */
 750:.\Generated_Source\PSoC5/ADC.c ****         countsPer10Volt = (int32)ADC_countsPerVolt * 10;
 723              		.loc 1 750 0
 724 0008 0F4B     		ldr	r3, .L74
 725 000a 1988     		ldrh	r1, [r3]
 726 000c 09B2     		sxth	r1, r1
 727 000e 01EB8101 		add	r1, r1, r1, lsl #2
 728 0012 4900     		lsls	r1, r1, #1
 729              	.LVL47:
 730 0014 01E0     		b	.L71
 731              	.LVL48:
 732              	.L70:
 751:.\Generated_Source\PSoC5/ADC.c ****     }
 752:.\Generated_Source\PSoC5/ADC.c ****     else
 753:.\Generated_Source\PSoC5/ADC.c ****     {
 754:.\Generated_Source\PSoC5/ADC.c ****         countsPer10Volt = ADC_countsPer10Volt;
 733              		.loc 1 754 0
 734 0016 0D4B     		ldr	r3, .L74+4
 735 0018 1968     		ldr	r1, [r3]
 736              	.LVL49:
 737              	.L71:
 755:.\Generated_Source\PSoC5/ADC.c ****     }
 756:.\Generated_Source\PSoC5/ADC.c **** 
 757:.\Generated_Source\PSoC5/ADC.c ****     /* Subtract ADC offset */
 758:.\Generated_Source\PSoC5/ADC.c ****     adcCounts -= ADC_offset;
 738              		.loc 1 758 0
 739 001a 0D4B     		ldr	r3, .L74+8
 740 001c 1A88     		ldrh	r2, [r3]
 741 001e 821A     		subs	r2, r0, r2
 742 0020 12B2     		sxth	r2, r2
 743              	.LVL50:
 759:.\Generated_Source\PSoC5/ADC.c ****     /* Convert to millivolts with rounding */
 760:.\Generated_Source\PSoC5/ADC.c ****     mVolts = (int16)( (( (int32)adcCounts * ADC_10MV_COUNTS ) + ( (adcCounts > 0) ?
 744              		.loc 1 760 0
 745 0022 42F21070 		movw	r0, #10000
 746 0026 00FB02F0 		mul	r0, r0, r2
 761:.\Generated_Source\PSoC5/ADC.c ****                        (countsPer10Volt / 2) : (-(countsPer10Volt / 2)) )) / countsPer10Volt);
 747              		.loc 1 761 0
 748 002a 002A     		cmp	r2, #0
 749 002c 03DD     		ble	.L72
 750              		.loc 1 761 0 is_stmt 0 discriminator 1
 751 002e 01EBD173 		add	r3, r1, r1, lsr #31
 752 0032 5B10     		asrs	r3, r3, #1
 753 0034 03E0     		b	.L73
 754              	.L72:
 755              		.loc 1 761 0 discriminator 2
 756 0036 01EBD172 		add	r2, r1, r1, lsr #31
ARM GAS  C:\Users\SUZUKI~1\AppData\Local\Temp\cc5iwTlG.s 			page 29


 757              	.LVL51:
 758 003a 5210     		asrs	r2, r2, #1
 759 003c 5342     		negs	r3, r2
 760              	.L73:
 760:.\Generated_Source\PSoC5/ADC.c ****                        (countsPer10Volt / 2) : (-(countsPer10Volt / 2)) )) / countsPer10Volt);
 761              		.loc 1 760 0 is_stmt 1
 762 003e 0344     		add	r3, r3, r0
 763              		.loc 1 761 0
 764 0040 93FBF1F0 		sdiv	r0, r3, r1
 765              	.LVL52:
 762:.\Generated_Source\PSoC5/ADC.c **** 
 763:.\Generated_Source\PSoC5/ADC.c ****     return( mVolts );
 764:.\Generated_Source\PSoC5/ADC.c **** }
 766              		.loc 1 764 0
 767 0044 00B2     		sxth	r0, r0
 768 0046 7047     		bx	lr
 769              	.L75:
 770              		.align	2
 771              	.L74:
 772 0048 00000000 		.word	ADC_countsPerVolt
 773 004c 00000000 		.word	ADC_countsPer10Volt
 774 0050 00000000 		.word	ADC_offset
 775              		.cfi_endproc
 776              	.LFE15:
 777              		.size	ADC_CountsTo_mVolts, .-ADC_CountsTo_mVolts
 778              		.global	__aeabi_ldivmod
 779              		.section	.text.ADC_CountsTo_uVolts,"ax",%progbits
 780              		.align	2
 781              		.global	ADC_CountsTo_uVolts
 782              		.thumb
 783              		.thumb_func
 784              		.type	ADC_CountsTo_uVolts, %function
 785              	ADC_CountsTo_uVolts:
 786              	.LFB16:
 765:.\Generated_Source\PSoC5/ADC.c **** 
 766:.\Generated_Source\PSoC5/ADC.c **** 
 767:.\Generated_Source\PSoC5/ADC.c **** /*******************************************************************************
 768:.\Generated_Source\PSoC5/ADC.c **** * Function Name: ADC_CountsTo_uVolts
 769:.\Generated_Source\PSoC5/ADC.c **** ********************************************************************************
 770:.\Generated_Source\PSoC5/ADC.c **** *
 771:.\Generated_Source\PSoC5/ADC.c **** * Summary:
 772:.\Generated_Source\PSoC5/ADC.c **** *  Converts the ADC output to microvolts as a 32-bit integer.
 773:.\Generated_Source\PSoC5/ADC.c **** *
 774:.\Generated_Source\PSoC5/ADC.c **** * Parameters:
 775:.\Generated_Source\PSoC5/ADC.c **** *  int16 adcCounts: Result from the ADC conversion
 776:.\Generated_Source\PSoC5/ADC.c **** *
 777:.\Generated_Source\PSoC5/ADC.c **** * Return:
 778:.\Generated_Source\PSoC5/ADC.c **** *  int32 Result in micro Volts
 779:.\Generated_Source\PSoC5/ADC.c **** *
 780:.\Generated_Source\PSoC5/ADC.c **** * Global Variables:
 781:.\Generated_Source\PSoC5/ADC.c **** *  ADC_offset variable used.
 782:.\Generated_Source\PSoC5/ADC.c **** *  ADC_countsPer10Volt used to convert ADC counts to uVolts.
 783:.\Generated_Source\PSoC5/ADC.c **** *
 784:.\Generated_Source\PSoC5/ADC.c **** *******************************************************************************/
 785:.\Generated_Source\PSoC5/ADC.c **** int32 ADC_CountsTo_uVolts(int16 adcCounts)
 786:.\Generated_Source\PSoC5/ADC.c **** {
 787              		.loc 1 786 0
ARM GAS  C:\Users\SUZUKI~1\AppData\Local\Temp\cc5iwTlG.s 			page 30


 788              		.cfi_startproc
 789              		@ args = 0, pretend = 0, frame = 0
 790              		@ frame_needed = 0, uses_anonymous_args = 0
 791              	.LVL53:
 792 0000 38B5     		push	{r3, r4, r5, lr}
 793              		.cfi_def_cfa_offset 16
 794              		.cfi_offset 3, -16
 795              		.cfi_offset 4, -12
 796              		.cfi_offset 5, -8
 797              		.cfi_offset 14, -4
 787:.\Generated_Source\PSoC5/ADC.c **** 
 788:.\Generated_Source\PSoC5/ADC.c ****     int64 uVolts;
 789:.\Generated_Source\PSoC5/ADC.c ****     int32 countsPer10Volt;
 790:.\Generated_Source\PSoC5/ADC.c **** 
 791:.\Generated_Source\PSoC5/ADC.c ****     if(ADC_countsPerVolt != 0)
 798              		.loc 1 791 0
 799 0002 0D4B     		ldr	r3, .L80
 800 0004 1B88     		ldrh	r3, [r3]
 801 0006 9BB2     		uxth	r3, r3
 802 0008 33B1     		cbz	r3, .L77
 792:.\Generated_Source\PSoC5/ADC.c ****     {   /* Support obsolete method */
 793:.\Generated_Source\PSoC5/ADC.c ****         countsPer10Volt = (int32)ADC_countsPerVolt * 10;
 803              		.loc 1 793 0
 804 000a 0B4B     		ldr	r3, .L80
 805 000c 1A88     		ldrh	r2, [r3]
 806 000e 12B2     		sxth	r2, r2
 807 0010 02EB8202 		add	r2, r2, r2, lsl #2
 808 0014 5200     		lsls	r2, r2, #1
 809              	.LVL54:
 810 0016 01E0     		b	.L78
 811              	.LVL55:
 812              	.L77:
 794:.\Generated_Source\PSoC5/ADC.c ****     }
 795:.\Generated_Source\PSoC5/ADC.c ****     else
 796:.\Generated_Source\PSoC5/ADC.c ****     {
 797:.\Generated_Source\PSoC5/ADC.c ****         countsPer10Volt = ADC_countsPer10Volt;
 813              		.loc 1 797 0
 814 0018 084B     		ldr	r3, .L80+4
 815 001a 1A68     		ldr	r2, [r3]
 816              	.LVL56:
 817              	.L78:
 798:.\Generated_Source\PSoC5/ADC.c ****     }
 799:.\Generated_Source\PSoC5/ADC.c **** 
 800:.\Generated_Source\PSoC5/ADC.c ****     /* Subtract ADC offset */
 801:.\Generated_Source\PSoC5/ADC.c ****     adcCounts -= ADC_offset;
 818              		.loc 1 801 0
 819 001c 084B     		ldr	r3, .L80+8
 820 001e 1C88     		ldrh	r4, [r3]
 821              	.LVL57:
 802:.\Generated_Source\PSoC5/ADC.c ****     /* To convert adcCounts to microVolts it is required to be multiplied
 803:.\Generated_Source\PSoC5/ADC.c ****     *  on 10 million and later divide on gain in counts per 10V.
 804:.\Generated_Source\PSoC5/ADC.c ****     */
 805:.\Generated_Source\PSoC5/ADC.c ****     uVolts = (( (int64)adcCounts * ADC_10UV_COUNTS ) / countsPer10Volt);
 822              		.loc 1 805 0
 823 0020 041B     		subs	r4, r0, r4
 824              	.LVL58:
 825 0022 24B2     		sxth	r4, r4
ARM GAS  C:\Users\SUZUKI~1\AppData\Local\Temp\cc5iwTlG.s 			page 31


 826 0024 E517     		asrs	r5, r4, #31
 827 0026 074B     		ldr	r3, .L80+12
 828 0028 A4FB0301 		umull	r0, r1, r4, r3
 829 002c 03FB0511 		mla	r1, r3, r5, r1
 830 0030 D317     		asrs	r3, r2, #31
 831 0032 FFF7FEFF 		bl	__aeabi_ldivmod
 832              	.LVL59:
 806:.\Generated_Source\PSoC5/ADC.c **** 
 807:.\Generated_Source\PSoC5/ADC.c ****     return( uVolts );
 808:.\Generated_Source\PSoC5/ADC.c **** }
 833              		.loc 1 808 0
 834 0036 38BD     		pop	{r3, r4, r5, pc}
 835              	.L81:
 836              		.align	2
 837              	.L80:
 838 0038 00000000 		.word	ADC_countsPerVolt
 839 003c 00000000 		.word	ADC_countsPer10Volt
 840 0040 00000000 		.word	ADC_offset
 841 0044 80969800 		.word	10000000
 842              		.cfi_endproc
 843              	.LFE16:
 844              		.size	ADC_CountsTo_uVolts, .-ADC_CountsTo_uVolts
 845              		.global	__aeabi_i2f
 846              		.global	__aeabi_fmul
 847              		.global	__aeabi_fdiv
 848              		.section	.text.ADC_CountsTo_Volts,"ax",%progbits
 849              		.align	2
 850              		.global	ADC_CountsTo_Volts
 851              		.thumb
 852              		.thumb_func
 853              		.type	ADC_CountsTo_Volts, %function
 854              	ADC_CountsTo_Volts:
 855              	.LFB17:
 809:.\Generated_Source\PSoC5/ADC.c **** 
 810:.\Generated_Source\PSoC5/ADC.c **** 
 811:.\Generated_Source\PSoC5/ADC.c **** /*******************************************************************************
 812:.\Generated_Source\PSoC5/ADC.c **** * Function Name: ADC_CountsTo_Volts
 813:.\Generated_Source\PSoC5/ADC.c **** ********************************************************************************
 814:.\Generated_Source\PSoC5/ADC.c **** *
 815:.\Generated_Source\PSoC5/ADC.c **** * Summary:
 816:.\Generated_Source\PSoC5/ADC.c **** *  Converts the ADC output to volts as a floating-point number.
 817:.\Generated_Source\PSoC5/ADC.c **** *
 818:.\Generated_Source\PSoC5/ADC.c **** * Parameters:
 819:.\Generated_Source\PSoC5/ADC.c **** *  int16 adcCounts: Result from the ADC conversion
 820:.\Generated_Source\PSoC5/ADC.c **** *
 821:.\Generated_Source\PSoC5/ADC.c **** * Return:
 822:.\Generated_Source\PSoC5/ADC.c **** *  float Result in Volts
 823:.\Generated_Source\PSoC5/ADC.c **** *
 824:.\Generated_Source\PSoC5/ADC.c **** * Global Variables:
 825:.\Generated_Source\PSoC5/ADC.c **** *  ADC_offset variable used.
 826:.\Generated_Source\PSoC5/ADC.c **** *  ADC_countsPer10Volt used to convert ADC counts to Volts.
 827:.\Generated_Source\PSoC5/ADC.c **** *
 828:.\Generated_Source\PSoC5/ADC.c **** *******************************************************************************/
 829:.\Generated_Source\PSoC5/ADC.c **** float32 ADC_CountsTo_Volts(int16 adcCounts)
 830:.\Generated_Source\PSoC5/ADC.c **** {
 856              		.loc 1 830 0
 857              		.cfi_startproc
ARM GAS  C:\Users\SUZUKI~1\AppData\Local\Temp\cc5iwTlG.s 			page 32


 858              		@ args = 0, pretend = 0, frame = 0
 859              		@ frame_needed = 0, uses_anonymous_args = 0
 860              	.LVL60:
 861 0000 38B5     		push	{r3, r4, r5, lr}
 862              		.cfi_def_cfa_offset 16
 863              		.cfi_offset 3, -16
 864              		.cfi_offset 4, -12
 865              		.cfi_offset 5, -8
 866              		.cfi_offset 14, -4
 831:.\Generated_Source\PSoC5/ADC.c ****     float32 volts;
 832:.\Generated_Source\PSoC5/ADC.c ****     int32 countsPer10Volt;
 833:.\Generated_Source\PSoC5/ADC.c **** 
 834:.\Generated_Source\PSoC5/ADC.c ****     if(ADC_countsPerVolt != 0)
 867              		.loc 1 834 0
 868 0002 0F4B     		ldr	r3, .L86
 869 0004 1B88     		ldrh	r3, [r3]
 870 0006 9BB2     		uxth	r3, r3
 871 0008 33B1     		cbz	r3, .L83
 835:.\Generated_Source\PSoC5/ADC.c ****     {   /* Support obsolete method */
 836:.\Generated_Source\PSoC5/ADC.c ****         countsPer10Volt = (int32)ADC_countsPerVolt * 10;
 872              		.loc 1 836 0
 873 000a 0D4B     		ldr	r3, .L86
 874 000c 1C88     		ldrh	r4, [r3]
 875 000e 24B2     		sxth	r4, r4
 876 0010 04EB8404 		add	r4, r4, r4, lsl #2
 877 0014 6400     		lsls	r4, r4, #1
 878              	.LVL61:
 879 0016 01E0     		b	.L84
 880              	.LVL62:
 881              	.L83:
 837:.\Generated_Source\PSoC5/ADC.c ****     }
 838:.\Generated_Source\PSoC5/ADC.c ****     else
 839:.\Generated_Source\PSoC5/ADC.c ****     {
 840:.\Generated_Source\PSoC5/ADC.c ****         countsPer10Volt = ADC_countsPer10Volt;
 882              		.loc 1 840 0
 883 0018 0A4B     		ldr	r3, .L86+4
 884 001a 1C68     		ldr	r4, [r3]
 885              	.LVL63:
 886              	.L84:
 841:.\Generated_Source\PSoC5/ADC.c ****     }
 842:.\Generated_Source\PSoC5/ADC.c **** 
 843:.\Generated_Source\PSoC5/ADC.c ****     /* Subtract ADC offset */
 844:.\Generated_Source\PSoC5/ADC.c ****     adcCounts -= ADC_offset;
 887              		.loc 1 844 0
 888 001c 0A4B     		ldr	r3, .L86+8
 889 001e 1B88     		ldrh	r3, [r3]
 890 0020 C01A     		subs	r0, r0, r3
 891              	.LVL64:
 845:.\Generated_Source\PSoC5/ADC.c **** 
 846:.\Generated_Source\PSoC5/ADC.c ****     volts = ((float32)adcCounts * ADC_10V_COUNTS) / (float32)countsPer10Volt;
 892              		.loc 1 846 0
 893 0022 00B2     		sxth	r0, r0
 894 0024 FFF7FEFF 		bl	__aeabi_i2f
 895              	.LVL65:
 896 0028 0849     		ldr	r1, .L86+12
 897 002a FFF7FEFF 		bl	__aeabi_fmul
 898              	.LVL66:
ARM GAS  C:\Users\SUZUKI~1\AppData\Local\Temp\cc5iwTlG.s 			page 33


 899 002e 0546     		mov	r5, r0
 900 0030 2046     		mov	r0, r4
 901 0032 FFF7FEFF 		bl	__aeabi_i2f
 902              	.LVL67:
 903 0036 0146     		mov	r1, r0
 904 0038 2846     		mov	r0, r5
 905 003a FFF7FEFF 		bl	__aeabi_fdiv
 906              	.LVL68:
 847:.\Generated_Source\PSoC5/ADC.c **** 
 848:.\Generated_Source\PSoC5/ADC.c ****     return( volts );
 849:.\Generated_Source\PSoC5/ADC.c **** }
 907              		.loc 1 849 0
 908 003e 38BD     		pop	{r3, r4, r5, pc}
 909              	.LVL69:
 910              	.L87:
 911              		.align	2
 912              	.L86:
 913 0040 00000000 		.word	ADC_countsPerVolt
 914 0044 00000000 		.word	ADC_countsPer10Volt
 915 0048 00000000 		.word	ADC_offset
 916 004c 00002041 		.word	1092616192
 917              		.cfi_endproc
 918              	.LFE17:
 919              		.size	ADC_CountsTo_Volts, .-ADC_CountsTo_Volts
 920              		.comm	ADC_shift,2,2
 921              		.comm	ADC_countsPer10Volt,4,4
 922              		.comm	ADC_countsPerVolt,2,2
 923              		.comm	ADC_offset,2,2
 924              		.global	ADC_initVar
 925              		.bss
 926              		.set	.LANCHOR0,. + 0
 927              		.type	ADC_initVar, %object
 928              		.size	ADC_initVar, 1
 929              	ADC_initVar:
 930 0000 00       		.space	1
 931              		.text
 932              	.Letext0:
 933              		.file 2 ".\\Generated_Source\\PSoC5\\cytypes.h"
 934              		.file 3 ".\\Generated_Source\\PSoC5\\CyLib.h"
 935              		.file 4 ".\\Generated_Source\\PSoC5\\ADC_theACLK.h"