ARM GAS  C:\Users\SUZUKI~1\AppData\Local\Temp\ccB7qA2v.s 			page 1


   1              		.syntax unified
   2              		.cpu cortex-m3
   3              		.fpu softvfp
   4              		.eabi_attribute 20, 1
   5              		.eabi_attribute 21, 1
   6              		.eabi_attribute 23, 3
   7              		.eabi_attribute 24, 1
   8              		.eabi_attribute 25, 1
   9              		.eabi_attribute 26, 1
  10              		.eabi_attribute 30, 4
  11              		.eabi_attribute 34, 1
  12              		.eabi_attribute 18, 4
  13              		.thumb
  14              		.file	"cyfitter_cfg.c"
  15              		.text
  16              	.Ltext0:
  17              		.cfi_sections	.debug_frame
  18              		.section	.text.SetAnalogRoutingPumps,"ax",%progbits
  19              		.align	1
  20              		.global	SetAnalogRoutingPumps
  21              		.thumb
  22              		.thumb_func
  23              		.type	SetAnalogRoutingPumps, %function
  24              	SetAnalogRoutingPumps:
  25              	.LFB7:
  26              		.file 1 ".\\Generated_Source\\PSoC5\\cyfitter_cfg.c"
   1:.\Generated_Source\PSoC5/cyfitter_cfg.c **** /*******************************************************************************
   2:.\Generated_Source\PSoC5/cyfitter_cfg.c **** * File Name: cyfitter_cfg.c
   3:.\Generated_Source\PSoC5/cyfitter_cfg.c **** * 
   4:.\Generated_Source\PSoC5/cyfitter_cfg.c **** * PSoC Creator  3.3 CP3
   5:.\Generated_Source\PSoC5/cyfitter_cfg.c **** *
   6:.\Generated_Source\PSoC5/cyfitter_cfg.c **** * Description:
   7:.\Generated_Source\PSoC5/cyfitter_cfg.c **** * This file contains device initialization code.
   8:.\Generated_Source\PSoC5/cyfitter_cfg.c **** * Except for the user defined sections in CyClockStartupError(), this file should not be modified.
   9:.\Generated_Source\PSoC5/cyfitter_cfg.c **** * This file is automatically generated by PSoC Creator.
  10:.\Generated_Source\PSoC5/cyfitter_cfg.c **** *
  11:.\Generated_Source\PSoC5/cyfitter_cfg.c **** ********************************************************************************
  12:.\Generated_Source\PSoC5/cyfitter_cfg.c **** * Copyright (c) 2007-2016 Cypress Semiconductor.  All rights reserved.
  13:.\Generated_Source\PSoC5/cyfitter_cfg.c **** * You may use this file only in accordance with the license, terms, conditions, 
  14:.\Generated_Source\PSoC5/cyfitter_cfg.c **** * disclaimers, and limitations in the end user license agreement accompanying 
  15:.\Generated_Source\PSoC5/cyfitter_cfg.c **** * the software package with which this file was provided.
  16:.\Generated_Source\PSoC5/cyfitter_cfg.c **** ********************************************************************************/
  17:.\Generated_Source\PSoC5/cyfitter_cfg.c **** 
  18:.\Generated_Source\PSoC5/cyfitter_cfg.c **** #include <string.h>
  19:.\Generated_Source\PSoC5/cyfitter_cfg.c **** #include "cytypes.h"
  20:.\Generated_Source\PSoC5/cyfitter_cfg.c **** #include "cydevice_trm.h"
  21:.\Generated_Source\PSoC5/cyfitter_cfg.c **** #include "cyfitter.h"
  22:.\Generated_Source\PSoC5/cyfitter_cfg.c **** #include "CyLib.h"
  23:.\Generated_Source\PSoC5/cyfitter_cfg.c **** #include "cyfitter_cfg.h"
  24:.\Generated_Source\PSoC5/cyfitter_cfg.c **** 
  25:.\Generated_Source\PSoC5/cyfitter_cfg.c **** #define CY_NEED_CYCLOCKSTARTUPERROR 1
  26:.\Generated_Source\PSoC5/cyfitter_cfg.c **** 
  27:.\Generated_Source\PSoC5/cyfitter_cfg.c **** 
  28:.\Generated_Source\PSoC5/cyfitter_cfg.c **** #if defined(__GNUC__) || defined(__ARMCC_VERSION)
  29:.\Generated_Source\PSoC5/cyfitter_cfg.c ****     #define CYPACKED 
  30:.\Generated_Source\PSoC5/cyfitter_cfg.c ****     #define CYPACKED_ATTR __attribute__ ((packed))
  31:.\Generated_Source\PSoC5/cyfitter_cfg.c ****     #define CYALIGNED __attribute__ ((aligned))
ARM GAS  C:\Users\SUZUKI~1\AppData\Local\Temp\ccB7qA2v.s 			page 2


  32:.\Generated_Source\PSoC5/cyfitter_cfg.c ****     #define CY_CFG_UNUSED __attribute__ ((unused))
  33:.\Generated_Source\PSoC5/cyfitter_cfg.c ****     #ifndef CY_CFG_SECTION
  34:.\Generated_Source\PSoC5/cyfitter_cfg.c ****         #define CY_CFG_SECTION __attribute__ ((section(".psocinit")))
  35:.\Generated_Source\PSoC5/cyfitter_cfg.c ****     #endif
  36:.\Generated_Source\PSoC5/cyfitter_cfg.c ****     
  37:.\Generated_Source\PSoC5/cyfitter_cfg.c ****     #if defined(__ARMCC_VERSION)
  38:.\Generated_Source\PSoC5/cyfitter_cfg.c ****         #define CY_CFG_MEMORY_BARRIER() __memory_changed()
  39:.\Generated_Source\PSoC5/cyfitter_cfg.c ****     #else
  40:.\Generated_Source\PSoC5/cyfitter_cfg.c ****         #define CY_CFG_MEMORY_BARRIER() __sync_synchronize()
  41:.\Generated_Source\PSoC5/cyfitter_cfg.c ****     #endif
  42:.\Generated_Source\PSoC5/cyfitter_cfg.c ****     
  43:.\Generated_Source\PSoC5/cyfitter_cfg.c **** #elif defined(__ICCARM__)
  44:.\Generated_Source\PSoC5/cyfitter_cfg.c ****     #include <intrinsics.h>
  45:.\Generated_Source\PSoC5/cyfitter_cfg.c **** 
  46:.\Generated_Source\PSoC5/cyfitter_cfg.c ****     #define CYPACKED __packed
  47:.\Generated_Source\PSoC5/cyfitter_cfg.c ****     #define CYPACKED_ATTR 
  48:.\Generated_Source\PSoC5/cyfitter_cfg.c ****     #define CYALIGNED _Pragma("data_alignment=4")
  49:.\Generated_Source\PSoC5/cyfitter_cfg.c ****     #define CY_CFG_UNUSED _Pragma("diag_suppress=Pe177")
  50:.\Generated_Source\PSoC5/cyfitter_cfg.c ****     #define CY_CFG_SECTION _Pragma("location=\".psocinit\"")
  51:.\Generated_Source\PSoC5/cyfitter_cfg.c ****     
  52:.\Generated_Source\PSoC5/cyfitter_cfg.c ****     #define CY_CFG_MEMORY_BARRIER() __DMB()
  53:.\Generated_Source\PSoC5/cyfitter_cfg.c ****     
  54:.\Generated_Source\PSoC5/cyfitter_cfg.c **** #else
  55:.\Generated_Source\PSoC5/cyfitter_cfg.c ****     #error Unsupported toolchain
  56:.\Generated_Source\PSoC5/cyfitter_cfg.c **** #endif
  57:.\Generated_Source\PSoC5/cyfitter_cfg.c **** 
  58:.\Generated_Source\PSoC5/cyfitter_cfg.c **** 
  59:.\Generated_Source\PSoC5/cyfitter_cfg.c **** CY_CFG_UNUSED
  60:.\Generated_Source\PSoC5/cyfitter_cfg.c **** static void CYMEMZERO(void *s, size_t n);
  61:.\Generated_Source\PSoC5/cyfitter_cfg.c **** CY_CFG_UNUSED
  62:.\Generated_Source\PSoC5/cyfitter_cfg.c **** static void CYMEMZERO(void *s, size_t n)
  63:.\Generated_Source\PSoC5/cyfitter_cfg.c **** {
  64:.\Generated_Source\PSoC5/cyfitter_cfg.c **** 	(void)memset(s, 0, n);
  65:.\Generated_Source\PSoC5/cyfitter_cfg.c **** }
  66:.\Generated_Source\PSoC5/cyfitter_cfg.c **** CY_CFG_UNUSED
  67:.\Generated_Source\PSoC5/cyfitter_cfg.c **** static void CYCONFIGCPY(void *dest, const void *src, size_t n);
  68:.\Generated_Source\PSoC5/cyfitter_cfg.c **** CY_CFG_UNUSED
  69:.\Generated_Source\PSoC5/cyfitter_cfg.c **** static void CYCONFIGCPY(void *dest, const void *src, size_t n)
  70:.\Generated_Source\PSoC5/cyfitter_cfg.c **** {
  71:.\Generated_Source\PSoC5/cyfitter_cfg.c **** 	(void)memcpy(dest, src, n);
  72:.\Generated_Source\PSoC5/cyfitter_cfg.c **** }
  73:.\Generated_Source\PSoC5/cyfitter_cfg.c **** CY_CFG_UNUSED
  74:.\Generated_Source\PSoC5/cyfitter_cfg.c **** static void CYCONFIGCPYCODE(void *dest, const void *src, size_t n);
  75:.\Generated_Source\PSoC5/cyfitter_cfg.c **** CY_CFG_UNUSED
  76:.\Generated_Source\PSoC5/cyfitter_cfg.c **** static void CYCONFIGCPYCODE(void *dest, const void *src, size_t n)
  77:.\Generated_Source\PSoC5/cyfitter_cfg.c **** {
  78:.\Generated_Source\PSoC5/cyfitter_cfg.c **** 	(void)memcpy(dest, src, n);
  79:.\Generated_Source\PSoC5/cyfitter_cfg.c **** }
  80:.\Generated_Source\PSoC5/cyfitter_cfg.c **** 
  81:.\Generated_Source\PSoC5/cyfitter_cfg.c **** 
  82:.\Generated_Source\PSoC5/cyfitter_cfg.c **** 
  83:.\Generated_Source\PSoC5/cyfitter_cfg.c **** /* Clock startup error codes                                                   */
  84:.\Generated_Source\PSoC5/cyfitter_cfg.c **** #define CYCLOCKSTART_NO_ERROR    0u
  85:.\Generated_Source\PSoC5/cyfitter_cfg.c **** #define CYCLOCKSTART_XTAL_ERROR  1u
  86:.\Generated_Source\PSoC5/cyfitter_cfg.c **** #define CYCLOCKSTART_32KHZ_ERROR 2u
  87:.\Generated_Source\PSoC5/cyfitter_cfg.c **** #define CYCLOCKSTART_PLL_ERROR   3u
  88:.\Generated_Source\PSoC5/cyfitter_cfg.c **** 
ARM GAS  C:\Users\SUZUKI~1\AppData\Local\Temp\ccB7qA2v.s 			page 3


  89:.\Generated_Source\PSoC5/cyfitter_cfg.c **** #ifdef CY_NEED_CYCLOCKSTARTUPERROR
  90:.\Generated_Source\PSoC5/cyfitter_cfg.c **** /*******************************************************************************
  91:.\Generated_Source\PSoC5/cyfitter_cfg.c **** * Function Name: CyClockStartupError
  92:.\Generated_Source\PSoC5/cyfitter_cfg.c **** ********************************************************************************
  93:.\Generated_Source\PSoC5/cyfitter_cfg.c **** * Summary:
  94:.\Generated_Source\PSoC5/cyfitter_cfg.c **** *  If an error is encountered during clock configuration (crystal startup error,
  95:.\Generated_Source\PSoC5/cyfitter_cfg.c **** *  PLL lock error, etc.), the system will end up here.  Unless reimplemented by
  96:.\Generated_Source\PSoC5/cyfitter_cfg.c **** *  the customer, this function will stop in an infinite loop.
  97:.\Generated_Source\PSoC5/cyfitter_cfg.c **** *
  98:.\Generated_Source\PSoC5/cyfitter_cfg.c **** * Parameters:
  99:.\Generated_Source\PSoC5/cyfitter_cfg.c **** *   void
 100:.\Generated_Source\PSoC5/cyfitter_cfg.c **** *
 101:.\Generated_Source\PSoC5/cyfitter_cfg.c **** * Return:
 102:.\Generated_Source\PSoC5/cyfitter_cfg.c **** *   void
 103:.\Generated_Source\PSoC5/cyfitter_cfg.c **** *
 104:.\Generated_Source\PSoC5/cyfitter_cfg.c **** *******************************************************************************/
 105:.\Generated_Source\PSoC5/cyfitter_cfg.c **** CY_CFG_UNUSED
 106:.\Generated_Source\PSoC5/cyfitter_cfg.c **** static void CyClockStartupError(uint8 errorCode);
 107:.\Generated_Source\PSoC5/cyfitter_cfg.c **** CY_CFG_UNUSED
 108:.\Generated_Source\PSoC5/cyfitter_cfg.c **** static void CyClockStartupError(uint8 errorCode)
 109:.\Generated_Source\PSoC5/cyfitter_cfg.c **** {
 110:.\Generated_Source\PSoC5/cyfitter_cfg.c ****     /* To remove the compiler warning if errorCode not used.                */
 111:.\Generated_Source\PSoC5/cyfitter_cfg.c ****     errorCode = errorCode;
 112:.\Generated_Source\PSoC5/cyfitter_cfg.c **** 
 113:.\Generated_Source\PSoC5/cyfitter_cfg.c ****     /* `#START CyClockStartupError` */
 114:.\Generated_Source\PSoC5/cyfitter_cfg.c **** 
 115:.\Generated_Source\PSoC5/cyfitter_cfg.c ****     /* If we have a clock startup error (bad MHz crystal, PLL lock, etc.),  */
 116:.\Generated_Source\PSoC5/cyfitter_cfg.c ****     /* we will end up here to allow the customer to implement something to  */
 117:.\Generated_Source\PSoC5/cyfitter_cfg.c ****     /* deal with the clock condition.                                       */
 118:.\Generated_Source\PSoC5/cyfitter_cfg.c **** 
 119:.\Generated_Source\PSoC5/cyfitter_cfg.c ****     /* `#END` */
 120:.\Generated_Source\PSoC5/cyfitter_cfg.c **** 
 121:.\Generated_Source\PSoC5/cyfitter_cfg.c ****     /* If nothing else, stop here since the clocks have not started         */
 122:.\Generated_Source\PSoC5/cyfitter_cfg.c ****     /* correctly.                                                           */
 123:.\Generated_Source\PSoC5/cyfitter_cfg.c ****     while(1) {}
 124:.\Generated_Source\PSoC5/cyfitter_cfg.c **** }
 125:.\Generated_Source\PSoC5/cyfitter_cfg.c **** #endif
 126:.\Generated_Source\PSoC5/cyfitter_cfg.c **** 
 127:.\Generated_Source\PSoC5/cyfitter_cfg.c **** #define CY_CFG_BASE_ADDR_COUNT 21u
 128:.\Generated_Source\PSoC5/cyfitter_cfg.c **** CYPACKED typedef struct
 129:.\Generated_Source\PSoC5/cyfitter_cfg.c **** {
 130:.\Generated_Source\PSoC5/cyfitter_cfg.c **** 	uint8 offset;
 131:.\Generated_Source\PSoC5/cyfitter_cfg.c **** 	uint8 value;
 132:.\Generated_Source\PSoC5/cyfitter_cfg.c **** } CYPACKED_ATTR cy_cfg_addrvalue_t;
 133:.\Generated_Source\PSoC5/cyfitter_cfg.c **** 
 134:.\Generated_Source\PSoC5/cyfitter_cfg.c **** #define cy_cfg_addr_table ((const uint32 CYFAR *)0x48000000u)
 135:.\Generated_Source\PSoC5/cyfitter_cfg.c **** #define cy_cfg_data_table ((const cy_cfg_addrvalue_t CYFAR *)0x48000054u)
 136:.\Generated_Source\PSoC5/cyfitter_cfg.c **** 
 137:.\Generated_Source\PSoC5/cyfitter_cfg.c **** /* IOPINS0_7 Address: CYREG_PRT12_DM0 Size (bytes): 8 */
 138:.\Generated_Source\PSoC5/cyfitter_cfg.c **** #define BS_IOPINS0_7_VAL ((const uint8 CYFAR *)0x48000128u)
 139:.\Generated_Source\PSoC5/cyfitter_cfg.c **** 
 140:.\Generated_Source\PSoC5/cyfitter_cfg.c **** /* IOPINS0_8 Address: CYREG_PRT15_DM0 Size (bytes): 8 */
 141:.\Generated_Source\PSoC5/cyfitter_cfg.c **** #define BS_IOPINS0_8_VAL ((const uint8 CYFAR *)0x48000130u)
 142:.\Generated_Source\PSoC5/cyfitter_cfg.c **** 
 143:.\Generated_Source\PSoC5/cyfitter_cfg.c **** /* IOPINS0_1 Address: CYREG_PRT1_DM0 Size (bytes): 8 */
 144:.\Generated_Source\PSoC5/cyfitter_cfg.c **** #define BS_IOPINS0_1_VAL ((const uint8 CYFAR *)0x48000138u)
 145:.\Generated_Source\PSoC5/cyfitter_cfg.c **** 
ARM GAS  C:\Users\SUZUKI~1\AppData\Local\Temp\ccB7qA2v.s 			page 4


 146:.\Generated_Source\PSoC5/cyfitter_cfg.c **** /* IOPINS0_2 Address: CYREG_PRT2_DM0 Size (bytes): 8 */
 147:.\Generated_Source\PSoC5/cyfitter_cfg.c **** #define BS_IOPINS0_2_VAL ((const uint8 CYFAR *)0x48000140u)
 148:.\Generated_Source\PSoC5/cyfitter_cfg.c **** 
 149:.\Generated_Source\PSoC5/cyfitter_cfg.c **** /* IOPINS0_3 Address: CYREG_PRT3_DR Size (bytes): 10 */
 150:.\Generated_Source\PSoC5/cyfitter_cfg.c **** #define BS_IOPINS0_3_VAL ((const uint8 CYFAR *)0x48000148u)
 151:.\Generated_Source\PSoC5/cyfitter_cfg.c **** 
 152:.\Generated_Source\PSoC5/cyfitter_cfg.c **** 
 153:.\Generated_Source\PSoC5/cyfitter_cfg.c **** /*******************************************************************************
 154:.\Generated_Source\PSoC5/cyfitter_cfg.c **** * Function Name: cfg_write_bytes32
 155:.\Generated_Source\PSoC5/cyfitter_cfg.c **** ********************************************************************************
 156:.\Generated_Source\PSoC5/cyfitter_cfg.c **** * Summary:
 157:.\Generated_Source\PSoC5/cyfitter_cfg.c **** *  This function is used for setting up the chip configuration areas that
 158:.\Generated_Source\PSoC5/cyfitter_cfg.c **** *  contain relatively sparse data.
 159:.\Generated_Source\PSoC5/cyfitter_cfg.c **** *
 160:.\Generated_Source\PSoC5/cyfitter_cfg.c **** * Parameters:
 161:.\Generated_Source\PSoC5/cyfitter_cfg.c **** *   void
 162:.\Generated_Source\PSoC5/cyfitter_cfg.c **** *
 163:.\Generated_Source\PSoC5/cyfitter_cfg.c **** * Return:
 164:.\Generated_Source\PSoC5/cyfitter_cfg.c **** *   void
 165:.\Generated_Source\PSoC5/cyfitter_cfg.c **** *
 166:.\Generated_Source\PSoC5/cyfitter_cfg.c **** *******************************************************************************/
 167:.\Generated_Source\PSoC5/cyfitter_cfg.c **** static void cfg_write_bytes32(const uint32 addr_table[], const cy_cfg_addrvalue_t data_table[]);
 168:.\Generated_Source\PSoC5/cyfitter_cfg.c **** static void cfg_write_bytes32(const uint32 addr_table[], const cy_cfg_addrvalue_t data_table[])
 169:.\Generated_Source\PSoC5/cyfitter_cfg.c **** {
 170:.\Generated_Source\PSoC5/cyfitter_cfg.c **** 	/* For 32-bit little-endian architectures */
 171:.\Generated_Source\PSoC5/cyfitter_cfg.c **** 	uint32 i, j = 0u;
 172:.\Generated_Source\PSoC5/cyfitter_cfg.c **** 	for (i = 0u; i < CY_CFG_BASE_ADDR_COUNT; i++)
 173:.\Generated_Source\PSoC5/cyfitter_cfg.c **** 	{
 174:.\Generated_Source\PSoC5/cyfitter_cfg.c **** 		uint32 baseAddr = addr_table[i];
 175:.\Generated_Source\PSoC5/cyfitter_cfg.c **** 		uint8 count = (uint8)baseAddr;
 176:.\Generated_Source\PSoC5/cyfitter_cfg.c **** 		baseAddr &= 0xFFFFFF00u;
 177:.\Generated_Source\PSoC5/cyfitter_cfg.c **** 		while (count != 0u)
 178:.\Generated_Source\PSoC5/cyfitter_cfg.c **** 		{
 179:.\Generated_Source\PSoC5/cyfitter_cfg.c **** 			CY_SET_XTND_REG8((void CYFAR *)(baseAddr + data_table[j].offset), data_table[j].value);
 180:.\Generated_Source\PSoC5/cyfitter_cfg.c **** 			j++;
 181:.\Generated_Source\PSoC5/cyfitter_cfg.c **** 			count--;
 182:.\Generated_Source\PSoC5/cyfitter_cfg.c **** 		}
 183:.\Generated_Source\PSoC5/cyfitter_cfg.c **** 	}
 184:.\Generated_Source\PSoC5/cyfitter_cfg.c **** }
 185:.\Generated_Source\PSoC5/cyfitter_cfg.c **** 
 186:.\Generated_Source\PSoC5/cyfitter_cfg.c **** /*******************************************************************************
 187:.\Generated_Source\PSoC5/cyfitter_cfg.c **** * Function Name: ClockSetup
 188:.\Generated_Source\PSoC5/cyfitter_cfg.c **** ********************************************************************************
 189:.\Generated_Source\PSoC5/cyfitter_cfg.c **** *
 190:.\Generated_Source\PSoC5/cyfitter_cfg.c **** * Summary:
 191:.\Generated_Source\PSoC5/cyfitter_cfg.c **** *  Performs the initialization of all of the clocks in the device based on the
 192:.\Generated_Source\PSoC5/cyfitter_cfg.c **** *  settings in the Clock tab of the DWR.  This includes enabling the requested
 193:.\Generated_Source\PSoC5/cyfitter_cfg.c **** *  clocks and setting the necessary dividers to produce the desired frequency. 
 194:.\Generated_Source\PSoC5/cyfitter_cfg.c **** *
 195:.\Generated_Source\PSoC5/cyfitter_cfg.c **** * Parameters:
 196:.\Generated_Source\PSoC5/cyfitter_cfg.c **** *  void
 197:.\Generated_Source\PSoC5/cyfitter_cfg.c **** *
 198:.\Generated_Source\PSoC5/cyfitter_cfg.c **** * Return:
 199:.\Generated_Source\PSoC5/cyfitter_cfg.c **** *  void
 200:.\Generated_Source\PSoC5/cyfitter_cfg.c **** *
 201:.\Generated_Source\PSoC5/cyfitter_cfg.c **** *******************************************************************************/
 202:.\Generated_Source\PSoC5/cyfitter_cfg.c **** static void ClockSetup(void);
ARM GAS  C:\Users\SUZUKI~1\AppData\Local\Temp\ccB7qA2v.s 			page 5


 203:.\Generated_Source\PSoC5/cyfitter_cfg.c **** static void ClockSetup(void)
 204:.\Generated_Source\PSoC5/cyfitter_cfg.c **** {
 205:.\Generated_Source\PSoC5/cyfitter_cfg.c **** 	uint32 timeout;
 206:.\Generated_Source\PSoC5/cyfitter_cfg.c **** 	uint8 pllLock;
 207:.\Generated_Source\PSoC5/cyfitter_cfg.c **** 
 208:.\Generated_Source\PSoC5/cyfitter_cfg.c **** 
 209:.\Generated_Source\PSoC5/cyfitter_cfg.c **** 	/* Configure Digital Clocks based on settings from Clock DWR */
 210:.\Generated_Source\PSoC5/cyfitter_cfg.c **** 	CY_SET_XTND_REG16((void CYFAR *)(CYREG_CLKDIST_DCFG0_CFG0), 0x0001u);
 211:.\Generated_Source\PSoC5/cyfitter_cfg.c **** 	CY_SET_XTND_REG8((void CYFAR *)(CYREG_CLKDIST_DCFG0_CFG0 + 0x2u), 0x18u);
 212:.\Generated_Source\PSoC5/cyfitter_cfg.c **** 	CY_SET_XTND_REG16((void CYFAR *)(CYREG_CLKDIST_DCFG1_CFG0), 0x0013u);
 213:.\Generated_Source\PSoC5/cyfitter_cfg.c **** 	CY_SET_XTND_REG8((void CYFAR *)(CYREG_CLKDIST_DCFG1_CFG0 + 0x2u), 0x18u);
 214:.\Generated_Source\PSoC5/cyfitter_cfg.c **** 	CY_SET_XTND_REG16((void CYFAR *)(CYREG_CLKDIST_DCFG2_CFG0), 0x03E7u);
 215:.\Generated_Source\PSoC5/cyfitter_cfg.c **** 	CY_SET_XTND_REG8((void CYFAR *)(CYREG_CLKDIST_DCFG2_CFG0 + 0x2u), 0x1Bu);
 216:.\Generated_Source\PSoC5/cyfitter_cfg.c **** 
 217:.\Generated_Source\PSoC5/cyfitter_cfg.c **** 	/* Configure ILO based on settings from Clock DWR */
 218:.\Generated_Source\PSoC5/cyfitter_cfg.c **** 	CY_SET_XTND_REG8((void CYFAR *)(CYREG_SLOWCLK_ILO_CR0), 0x02u);
 219:.\Generated_Source\PSoC5/cyfitter_cfg.c **** 	CY_SET_XTND_REG8((void CYFAR *)(CYREG_CLKDIST_CR), 0x08u);
 220:.\Generated_Source\PSoC5/cyfitter_cfg.c **** 
 221:.\Generated_Source\PSoC5/cyfitter_cfg.c **** 	/* Configure IMO based on settings from Clock DWR */
 222:.\Generated_Source\PSoC5/cyfitter_cfg.c **** 	CY_SET_XTND_REG8((void CYFAR *)(CYREG_FASTCLK_IMO_CR), 0x03u);
 223:.\Generated_Source\PSoC5/cyfitter_cfg.c **** 	CY_SET_XTND_REG8((void CYFAR *)(CYREG_IMO_TR1), (CY_GET_XTND_REG8((void CYFAR *)CYREG_FLSHID_CUST_
 224:.\Generated_Source\PSoC5/cyfitter_cfg.c **** 
 225:.\Generated_Source\PSoC5/cyfitter_cfg.c **** 	/* Configure PLL based on settings from Clock DWR */
 226:.\Generated_Source\PSoC5/cyfitter_cfg.c **** 	CY_SET_XTND_REG16((void CYFAR *)(CYREG_FASTCLK_PLL_P), 0x0008u);
 227:.\Generated_Source\PSoC5/cyfitter_cfg.c **** 	CY_SET_XTND_REG16((void CYFAR *)(CYREG_FASTCLK_PLL_CFG0), 0x1251u);
 228:.\Generated_Source\PSoC5/cyfitter_cfg.c **** 	/* Wait up to 250us for the PLL to lock */
 229:.\Generated_Source\PSoC5/cyfitter_cfg.c **** 	pllLock = 0u;
 230:.\Generated_Source\PSoC5/cyfitter_cfg.c **** 	for (timeout = 250u / 10u; (timeout > 0u) && (pllLock != 0x03u); timeout--)
 231:.\Generated_Source\PSoC5/cyfitter_cfg.c **** 	{ 
 232:.\Generated_Source\PSoC5/cyfitter_cfg.c **** 		pllLock = 0x03u & ((uint8)((uint8)pllLock << 1) | ((CY_GET_XTND_REG8((void CYFAR *)CYREG_FASTCLK_
 233:.\Generated_Source\PSoC5/cyfitter_cfg.c **** 		CyDelayCycles(10u * 48u); /* Delay 10us based on 48MHz clock */
 234:.\Generated_Source\PSoC5/cyfitter_cfg.c **** 	}
 235:.\Generated_Source\PSoC5/cyfitter_cfg.c **** 	/* If we ran out of time the PLL didn't lock so go to the error function */
 236:.\Generated_Source\PSoC5/cyfitter_cfg.c **** 	if (timeout == 0u)
 237:.\Generated_Source\PSoC5/cyfitter_cfg.c **** 	{
 238:.\Generated_Source\PSoC5/cyfitter_cfg.c **** 		CyClockStartupError(CYCLOCKSTART_PLL_ERROR);
 239:.\Generated_Source\PSoC5/cyfitter_cfg.c **** 	}
 240:.\Generated_Source\PSoC5/cyfitter_cfg.c **** 
 241:.\Generated_Source\PSoC5/cyfitter_cfg.c **** 	/* Configure Bus/Master Clock based on settings from Clock DWR */
 242:.\Generated_Source\PSoC5/cyfitter_cfg.c **** 	CY_SET_XTND_REG16((void CYFAR *)(CYREG_CLKDIST_MSTR0), 0x0100u);
 243:.\Generated_Source\PSoC5/cyfitter_cfg.c **** 	CY_SET_XTND_REG8((void CYFAR *)(CYREG_CLKDIST_MSTR0), 0x07u);
 244:.\Generated_Source\PSoC5/cyfitter_cfg.c **** 	CY_SET_XTND_REG8((void CYFAR *)(CYREG_CLKDIST_BCFG0), 0x00u);
 245:.\Generated_Source\PSoC5/cyfitter_cfg.c **** 	CY_SET_XTND_REG8((void CYFAR *)(CYREG_CLKDIST_BCFG2), 0x48u);
 246:.\Generated_Source\PSoC5/cyfitter_cfg.c **** 	CY_SET_XTND_REG8((void CYFAR *)(CYREG_CLKDIST_MSTR0), 0x00u);
 247:.\Generated_Source\PSoC5/cyfitter_cfg.c **** 	CY_SET_XTND_REG8((void CYFAR *)(CYREG_CLKDIST_LD), 0x02u);
 248:.\Generated_Source\PSoC5/cyfitter_cfg.c **** 
 249:.\Generated_Source\PSoC5/cyfitter_cfg.c **** 	CY_SET_XTND_REG8((void CYFAR *)(CYREG_PM_ACT_CFG2), ((CY_GET_XTND_REG8((void CYFAR *)CYREG_PM_ACT_
 250:.\Generated_Source\PSoC5/cyfitter_cfg.c **** }
 251:.\Generated_Source\PSoC5/cyfitter_cfg.c **** 
 252:.\Generated_Source\PSoC5/cyfitter_cfg.c **** 
 253:.\Generated_Source\PSoC5/cyfitter_cfg.c **** /* Analog API Functions */
 254:.\Generated_Source\PSoC5/cyfitter_cfg.c **** 
 255:.\Generated_Source\PSoC5/cyfitter_cfg.c **** 
 256:.\Generated_Source\PSoC5/cyfitter_cfg.c **** /*******************************************************************************
 257:.\Generated_Source\PSoC5/cyfitter_cfg.c **** * Function Name: AnalogSetDefault
 258:.\Generated_Source\PSoC5/cyfitter_cfg.c **** ********************************************************************************
 259:.\Generated_Source\PSoC5/cyfitter_cfg.c **** *
ARM GAS  C:\Users\SUZUKI~1\AppData\Local\Temp\ccB7qA2v.s 			page 6


 260:.\Generated_Source\PSoC5/cyfitter_cfg.c **** * Summary:
 261:.\Generated_Source\PSoC5/cyfitter_cfg.c **** *  Sets up the analog portions of the chip to default values based on chip
 262:.\Generated_Source\PSoC5/cyfitter_cfg.c **** *  configuration options from the project.
 263:.\Generated_Source\PSoC5/cyfitter_cfg.c **** *
 264:.\Generated_Source\PSoC5/cyfitter_cfg.c **** * Parameters:
 265:.\Generated_Source\PSoC5/cyfitter_cfg.c **** *  void
 266:.\Generated_Source\PSoC5/cyfitter_cfg.c **** *
 267:.\Generated_Source\PSoC5/cyfitter_cfg.c **** * Return:
 268:.\Generated_Source\PSoC5/cyfitter_cfg.c **** *  void
 269:.\Generated_Source\PSoC5/cyfitter_cfg.c **** *
 270:.\Generated_Source\PSoC5/cyfitter_cfg.c **** *******************************************************************************/
 271:.\Generated_Source\PSoC5/cyfitter_cfg.c **** static void AnalogSetDefault(void);
 272:.\Generated_Source\PSoC5/cyfitter_cfg.c **** static void AnalogSetDefault(void)
 273:.\Generated_Source\PSoC5/cyfitter_cfg.c **** {
 274:.\Generated_Source\PSoC5/cyfitter_cfg.c **** 	uint8 bg_xover_inl_trim = CY_GET_XTND_REG8((void CYFAR *)(CYREG_FLSHID_MFG_CFG_BG_XOVER_INL_TRIM +
 275:.\Generated_Source\PSoC5/cyfitter_cfg.c **** 	uint8 cr4 = CY_GET_XTND_REG8((void CYFAR *)(CYREG_RESET_CR4));
 276:.\Generated_Source\PSoC5/cyfitter_cfg.c **** 	uint8 cr5 = CY_GET_XTND_REG8((void CYFAR *)(CYREG_RESET_CR5));
 277:.\Generated_Source\PSoC5/cyfitter_cfg.c **** 	CY_SET_XTND_REG8((void CYFAR *)(CYREG_BG_DFT0), (bg_xover_inl_trim & 0x07u));
 278:.\Generated_Source\PSoC5/cyfitter_cfg.c **** 	CY_SET_XTND_REG8((void CYFAR *)(CYREG_BG_DFT1), ((bg_xover_inl_trim >> 4) & 0x0Fu));
 279:.\Generated_Source\PSoC5/cyfitter_cfg.c **** 	/* Disable PRES while setting up SAR voltage reference */
 280:.\Generated_Source\PSoC5/cyfitter_cfg.c **** 	CY_SET_XTND_REG8((void CYFAR *)(CYREG_RESET_CR4), (cr4 | 0x03u));
 281:.\Generated_Source\PSoC5/cyfitter_cfg.c **** 	CY_SET_XTND_REG8((void CYFAR *)(CYREG_RESET_CR5), (cr5 | 0x03u));
 282:.\Generated_Source\PSoC5/cyfitter_cfg.c **** 	CY_SET_XTND_REG8((void CYFAR *)CYREG_PRT3_AMUX, 0x02u);
 283:.\Generated_Source\PSoC5/cyfitter_cfg.c **** 	CY_SET_XTND_REG8((void CYFAR *)CYREG_PRT15_AG, 0x02u);
 284:.\Generated_Source\PSoC5/cyfitter_cfg.c **** 	CY_SET_XTND_REG8((void CYFAR *)CYREG_SAR0_CSR1, 0x40u);
 285:.\Generated_Source\PSoC5/cyfitter_cfg.c **** 	CY_SET_XTND_REG8((void CYFAR *)CYREG_SAR0_CSR3, 0x40u);
 286:.\Generated_Source\PSoC5/cyfitter_cfg.c **** 	CY_SET_XTND_REG8((void CYFAR *)CYREG_DAC0_SW3, 0x01u);
 287:.\Generated_Source\PSoC5/cyfitter_cfg.c **** 	CY_SET_XTND_REG8((void CYFAR *)CYREG_SAR0_SW0, 0x20u);
 288:.\Generated_Source\PSoC5/cyfitter_cfg.c **** 	CY_SET_XTND_REG8((void CYFAR *)CYREG_SAR0_SW3, 0x20u);
 289:.\Generated_Source\PSoC5/cyfitter_cfg.c **** 	CY_SET_XTND_REG8((void CYFAR *)CYREG_BUS_SW0, 0x20u);
 290:.\Generated_Source\PSoC5/cyfitter_cfg.c **** 	CY_SET_XTND_REG8((void CYFAR *)CYREG_BUS_SW3, 0x01u);
 291:.\Generated_Source\PSoC5/cyfitter_cfg.c **** 	CyDelayUs(10u); /* Allow vref to settle before re-enabling PRES */
 292:.\Generated_Source\PSoC5/cyfitter_cfg.c **** 	CY_SET_XTND_REG8((void CYFAR *)(CYREG_RESET_CR5), (cr5));
 293:.\Generated_Source\PSoC5/cyfitter_cfg.c **** 	CY_SET_XTND_REG8((void CYFAR *)(CYREG_RESET_CR4), (cr4));
 294:.\Generated_Source\PSoC5/cyfitter_cfg.c **** 	CY_SET_XTND_REG8((void CYFAR *)CYREG_PUMP_CR0, 0x44u);
 295:.\Generated_Source\PSoC5/cyfitter_cfg.c **** }
 296:.\Generated_Source\PSoC5/cyfitter_cfg.c **** 
 297:.\Generated_Source\PSoC5/cyfitter_cfg.c **** 
 298:.\Generated_Source\PSoC5/cyfitter_cfg.c **** /*******************************************************************************
 299:.\Generated_Source\PSoC5/cyfitter_cfg.c **** * Function Name: SetAnalogRoutingPumps
 300:.\Generated_Source\PSoC5/cyfitter_cfg.c **** ********************************************************************************
 301:.\Generated_Source\PSoC5/cyfitter_cfg.c **** *
 302:.\Generated_Source\PSoC5/cyfitter_cfg.c **** * Summary:
 303:.\Generated_Source\PSoC5/cyfitter_cfg.c **** * Enables or disables the analog pumps feeding analog routing switches.
 304:.\Generated_Source\PSoC5/cyfitter_cfg.c **** * Intended to be called at startup, based on the Vdda system configuration;
 305:.\Generated_Source\PSoC5/cyfitter_cfg.c **** * may be called during operation when the user informs us that the Vdda voltage
 306:.\Generated_Source\PSoC5/cyfitter_cfg.c **** * crossed the pump threshold.
 307:.\Generated_Source\PSoC5/cyfitter_cfg.c **** *
 308:.\Generated_Source\PSoC5/cyfitter_cfg.c **** * Parameters:
 309:.\Generated_Source\PSoC5/cyfitter_cfg.c **** *  enabled - 1 to enable the pumps, 0 to disable the pumps
 310:.\Generated_Source\PSoC5/cyfitter_cfg.c **** *
 311:.\Generated_Source\PSoC5/cyfitter_cfg.c **** * Return:
 312:.\Generated_Source\PSoC5/cyfitter_cfg.c **** *  void
 313:.\Generated_Source\PSoC5/cyfitter_cfg.c **** *
 314:.\Generated_Source\PSoC5/cyfitter_cfg.c **** *******************************************************************************/
 315:.\Generated_Source\PSoC5/cyfitter_cfg.c **** void SetAnalogRoutingPumps(uint8 enabled)
 316:.\Generated_Source\PSoC5/cyfitter_cfg.c **** {
ARM GAS  C:\Users\SUZUKI~1\AppData\Local\Temp\ccB7qA2v.s 			page 7


  27              		.loc 1 316 0
  28              		.cfi_startproc
  29              		@ args = 0, pretend = 0, frame = 0
  30              		@ frame_needed = 0, uses_anonymous_args = 0
  31              		@ link register save eliminated.
  32              	.LVL0:
 317:.\Generated_Source\PSoC5/cyfitter_cfg.c **** 	uint8 regValue = CY_GET_XTND_REG8((void CYFAR *)CYREG_PUMP_CR0);
  33              		.loc 1 317 0
  34 0000 054A     		ldr	r2, .L5
  35 0002 1378     		ldrb	r3, [r2]	@ zero_extendqisi2
  36 0004 DBB2     		uxtb	r3, r3
  37              	.LVL1:
 318:.\Generated_Source\PSoC5/cyfitter_cfg.c **** 	if (enabled != 0u)
  38              		.loc 1 318 0
  39 0006 10B1     		cbz	r0, .L2
 319:.\Generated_Source\PSoC5/cyfitter_cfg.c **** 	{
 320:.\Generated_Source\PSoC5/cyfitter_cfg.c **** 		regValue |= 0x22u;
  40              		.loc 1 320 0
  41 0008 43F02203 		orr	r3, r3, #34
  42              	.LVL2:
  43 000c 01E0     		b	.L3
  44              	.L2:
 321:.\Generated_Source\PSoC5/cyfitter_cfg.c **** 	}
 322:.\Generated_Source\PSoC5/cyfitter_cfg.c **** 	else
 323:.\Generated_Source\PSoC5/cyfitter_cfg.c **** 	{
 324:.\Generated_Source\PSoC5/cyfitter_cfg.c **** 		regValue &= (uint8)~0x22u;
  45              		.loc 1 324 0
  46 000e 03F0DD03 		and	r3, r3, #221
  47              	.LVL3:
  48              	.L3:
 325:.\Generated_Source\PSoC5/cyfitter_cfg.c **** 	}
 326:.\Generated_Source\PSoC5/cyfitter_cfg.c **** 	CY_SET_XTND_REG8((void CYFAR *)CYREG_PUMP_CR0, regValue);
  49              		.loc 1 326 0
  50 0012 1370     		strb	r3, [r2]
  51 0014 7047     		bx	lr
  52              	.L6:
  53 0016 00BF     		.align	2
  54              	.L5:
  55 0018 76580040 		.word	1073764470
  56              		.cfi_endproc
  57              	.LFE7:
  58              		.size	SetAnalogRoutingPumps, .-SetAnalogRoutingPumps
  59              		.section	.text.cyfitter_cfg,"ax",%progbits
  60              		.align	1
  61              		.global	cyfitter_cfg
  62              		.thumb
  63              		.thumb_func
  64              		.type	cyfitter_cfg, %function
  65              	cyfitter_cfg:
  66              	.LFB8:
 327:.\Generated_Source\PSoC5/cyfitter_cfg.c **** }
 328:.\Generated_Source\PSoC5/cyfitter_cfg.c **** 
 329:.\Generated_Source\PSoC5/cyfitter_cfg.c **** #define CY_AMUX_UNUSED CYREG_BOOST_SR
 330:.\Generated_Source\PSoC5/cyfitter_cfg.c **** 
 331:.\Generated_Source\PSoC5/cyfitter_cfg.c **** 
 332:.\Generated_Source\PSoC5/cyfitter_cfg.c **** /*******************************************************************************
 333:.\Generated_Source\PSoC5/cyfitter_cfg.c **** * Function Name: cyfitter_cfg
ARM GAS  C:\Users\SUZUKI~1\AppData\Local\Temp\ccB7qA2v.s 			page 8


 334:.\Generated_Source\PSoC5/cyfitter_cfg.c **** ********************************************************************************
 335:.\Generated_Source\PSoC5/cyfitter_cfg.c **** * Summary:
 336:.\Generated_Source\PSoC5/cyfitter_cfg.c **** *  This function is called by the start-up code for the selected device. It
 337:.\Generated_Source\PSoC5/cyfitter_cfg.c **** *  performs all of the necessary device configuration based on the design
 338:.\Generated_Source\PSoC5/cyfitter_cfg.c **** *  settings.  This includes settings from the Design Wide Resources (DWR) such
 339:.\Generated_Source\PSoC5/cyfitter_cfg.c **** *  as Clocks and Pins as well as any component configuration that is necessary.
 340:.\Generated_Source\PSoC5/cyfitter_cfg.c **** *
 341:.\Generated_Source\PSoC5/cyfitter_cfg.c **** * Parameters:  
 342:.\Generated_Source\PSoC5/cyfitter_cfg.c **** *   void
 343:.\Generated_Source\PSoC5/cyfitter_cfg.c **** *
 344:.\Generated_Source\PSoC5/cyfitter_cfg.c **** * Return:
 345:.\Generated_Source\PSoC5/cyfitter_cfg.c **** *   void
 346:.\Generated_Source\PSoC5/cyfitter_cfg.c **** *
 347:.\Generated_Source\PSoC5/cyfitter_cfg.c **** *******************************************************************************/
 348:.\Generated_Source\PSoC5/cyfitter_cfg.c **** 
 349:.\Generated_Source\PSoC5/cyfitter_cfg.c **** void cyfitter_cfg(void)
 350:.\Generated_Source\PSoC5/cyfitter_cfg.c **** {
  67              		.loc 1 350 0
  68              		.cfi_startproc
  69              		@ args = 0, pretend = 0, frame = 0
  70              		@ frame_needed = 0, uses_anonymous_args = 0
  71 0000 2DE9F041 		push	{r4, r5, r6, r7, r8, lr}
  72              		.cfi_def_cfa_offset 24
  73              		.cfi_offset 4, -24
  74              		.cfi_offset 5, -20
  75              		.cfi_offset 6, -16
  76              		.cfi_offset 7, -12
  77              		.cfi_offset 8, -8
  78              		.cfi_offset 14, -4
 351:.\Generated_Source\PSoC5/cyfitter_cfg.c **** #ifdef CYGlobalIntDisable
 352:.\Generated_Source\PSoC5/cyfitter_cfg.c **** 	/* Disable interrupts by default. Let user enable if/when they want. */
 353:.\Generated_Source\PSoC5/cyfitter_cfg.c **** 	CYGlobalIntDisable
  79              		.loc 1 353 0
  80              	@ 353 ".\Generated_Source\PSoC5\cyfitter_cfg.c" 1
  81 0004 72B6     		CPSID   i
  82              	@ 0 "" 2
  83              	.LVL4:
  84              		.thumb
  85 0006 0024     		movs	r4, #0
  86              	.LVL5:
  87              	.L8:
  88              	.LBB46:
  89              	.LBB47:
 354:.\Generated_Source\PSoC5/cyfitter_cfg.c **** #endif
 355:.\Generated_Source\PSoC5/cyfitter_cfg.c **** 
 356:.\Generated_Source\PSoC5/cyfitter_cfg.c **** 	{
 357:.\Generated_Source\PSoC5/cyfitter_cfg.c **** 
 358:.\Generated_Source\PSoC5/cyfitter_cfg.c **** 		CYPACKED typedef struct {
 359:.\Generated_Source\PSoC5/cyfitter_cfg.c **** 			void CYFAR *address;
 360:.\Generated_Source\PSoC5/cyfitter_cfg.c **** 			uint16 size;
 361:.\Generated_Source\PSoC5/cyfitter_cfg.c **** 		} CYPACKED_ATTR cfg_memset_t;
 362:.\Generated_Source\PSoC5/cyfitter_cfg.c **** 
 363:.\Generated_Source\PSoC5/cyfitter_cfg.c **** 		static const cfg_memset_t CYCODE cfg_memset_list [] = {
 364:.\Generated_Source\PSoC5/cyfitter_cfg.c **** 			/* address, size */
 365:.\Generated_Source\PSoC5/cyfitter_cfg.c **** 			{(void CYFAR *)(CYREG_PRT0_DR), 16u},
 366:.\Generated_Source\PSoC5/cyfitter_cfg.c **** 			{(void CYFAR *)(CYREG_PRT4_DR), 48u},
 367:.\Generated_Source\PSoC5/cyfitter_cfg.c **** 			{(void CYFAR *)(CYDEV_UCFG_B0_P0_U0_BASE), 4096u},
ARM GAS  C:\Users\SUZUKI~1\AppData\Local\Temp\ccB7qA2v.s 			page 9


 368:.\Generated_Source\PSoC5/cyfitter_cfg.c **** 			{(void CYFAR *)(CYDEV_UCFG_B1_P2_U0_BASE), 2048u},
 369:.\Generated_Source\PSoC5/cyfitter_cfg.c **** 			{(void CYFAR *)(CYDEV_UCFG_DSI0_BASE), 2560u},
 370:.\Generated_Source\PSoC5/cyfitter_cfg.c **** 			{(void CYFAR *)(CYDEV_UCFG_DSI12_BASE), 512u},
 371:.\Generated_Source\PSoC5/cyfitter_cfg.c **** 			{(void CYFAR *)(CYREG_BCTL0_MDCLK_EN), 32u},
 372:.\Generated_Source\PSoC5/cyfitter_cfg.c **** 		};
 373:.\Generated_Source\PSoC5/cyfitter_cfg.c **** 
 374:.\Generated_Source\PSoC5/cyfitter_cfg.c **** 		uint8 CYDATA i;
 375:.\Generated_Source\PSoC5/cyfitter_cfg.c **** 
 376:.\Generated_Source\PSoC5/cyfitter_cfg.c **** 		/* Zero out critical memory blocks before beginning configuration */
 377:.\Generated_Source\PSoC5/cyfitter_cfg.c **** 		for (i = 0u; i < (sizeof(cfg_memset_list)/sizeof(cfg_memset_list[0])); i++)
 378:.\Generated_Source\PSoC5/cyfitter_cfg.c **** 		{
 379:.\Generated_Source\PSoC5/cyfitter_cfg.c **** 			const cfg_memset_t CYCODE * CYDATA ms = &cfg_memset_list[i];
 380:.\Generated_Source\PSoC5/cyfitter_cfg.c **** 			CYMEMZERO(ms->address, (size_t)(uint32)(ms->size));
  90              		.loc 1 380 0 discriminator 3
  91 0008 784A     		ldr	r2, .L22
  92 000a 0623     		movs	r3, #6
  93 000c 03FB0423 		mla	r3, r3, r4, r2
  94              	.LBB48:
  95              	.LBB49:
  64:.\Generated_Source\PSoC5/cyfitter_cfg.c **** }
  96              		.loc 1 64 0 discriminator 3
  97 0010 0021     		movs	r1, #0
  98 0012 1868     		ldr	r0, [r3]	@ unaligned
  99 0014 9A88     		ldrh	r2, [r3, #4]	@ unaligned
 100 0016 0134     		adds	r4, r4, #1
 101              	.LVL6:
 102 0018 FFF7FEFF 		bl	memset
 103              	.LVL7:
 104              	.LBE49:
 105              	.LBE48:
 106              	.LBE47:
 377:.\Generated_Source\PSoC5/cyfitter_cfg.c **** 		{
 107              		.loc 1 377 0 discriminator 3
 108 001c 072C     		cmp	r4, #7
 109 001e F3D1     		bne	.L8
 110 0020 7348     		ldr	r0, .L22+4
 111 0022 0024     		movs	r4, #0
 112              	.LVL8:
 113              	.L11:
 114              	.LBB50:
 115              	.LBB51:
 116              	.LBB52:
 174:.\Generated_Source\PSoC5/cyfitter_cfg.c **** 		uint8 count = (uint8)baseAddr;
 117              		.loc 1 174 0
 118 0024 50F8041F 		ldr	r1, [r0, #4]!
 119              	.LVL9:
 120 0028 04F11053 		add	r3, r4, #603979776
 121 002c 03F12A02 		add	r2, r3, #42
 176:.\Generated_Source\PSoC5/cyfitter_cfg.c **** 		while (count != 0u)
 122              		.loc 1 176 0
 123 0030 21F0FF05 		bic	r5, r1, #255
 124              	.LVL10:
 125 0034 2B33     		adds	r3, r3, #43
 126 0036 C9B2     		uxtb	r1, r1
 127 0038 0B44     		add	r3, r3, r1
 128 003a 5200     		lsls	r2, r2, #1
 129 003c 5B00     		lsls	r3, r3, #1
ARM GAS  C:\Users\SUZUKI~1\AppData\Local\Temp\ccB7qA2v.s 			page 10


 130              	.LVL11:
 131              	.L9:
 132 003e 0232     		adds	r2, r2, #2
 177:.\Generated_Source\PSoC5/cyfitter_cfg.c **** 		{
 133              		.loc 1 177 0
 134 0040 9A42     		cmp	r2, r3
 135 0042 05D0     		beq	.L21
 179:.\Generated_Source\PSoC5/cyfitter_cfg.c **** 			j++;
 136              		.loc 1 179 0
 137 0044 12F8026C 		ldrb	r6, [r2, #-2]	@ zero_extendqisi2
 138 0048 12F8017C 		ldrb	r7, [r2, #-1]	@ zero_extendqisi2
 139 004c AF55     		strb	r7, [r5, r6]
 140 004e F6E7     		b	.L9
 141              	.L21:
 142              	.LBE52:
 172:.\Generated_Source\PSoC5/cyfitter_cfg.c **** 	{
 143              		.loc 1 172 0
 144 0050 684B     		ldr	r3, .L22+8
 145 0052 0C44     		add	r4, r4, r1
 146              	.LVL12:
 147 0054 9842     		cmp	r0, r3
 148 0056 E5D1     		bne	.L11
 149              	.LVL13:
 150              	.LBE51:
 151              	.LBE50:
 152              	.LBB53:
 153              	.LBB54:
  64:.\Generated_Source\PSoC5/cyfitter_cfg.c **** }
 154              		.loc 1 64 0
 155 0058 674B     		ldr	r3, .L22+12
 156              	.LBE54:
 157              	.LBE53:
 381:.\Generated_Source\PSoC5/cyfitter_cfg.c **** 		}
 382:.\Generated_Source\PSoC5/cyfitter_cfg.c **** 
 383:.\Generated_Source\PSoC5/cyfitter_cfg.c **** 		cfg_write_bytes32(cy_cfg_addr_table, cy_cfg_data_table);
 384:.\Generated_Source\PSoC5/cyfitter_cfg.c **** 
 385:.\Generated_Source\PSoC5/cyfitter_cfg.c **** 		/* Perform normal device configuration. Order is not critical for these items. */
 386:.\Generated_Source\PSoC5/cyfitter_cfg.c **** 		CYMEMZERO((void CYFAR *)(CYREG_PHUB_CFGMEM0_CFG0), 4u);
 387:.\Generated_Source\PSoC5/cyfitter_cfg.c **** 		CYMEMZERO((void CYFAR *)(CYREG_PHUB_CFGMEM1_CFG0), 4u);
 388:.\Generated_Source\PSoC5/cyfitter_cfg.c **** 
 389:.\Generated_Source\PSoC5/cyfitter_cfg.c **** 		/* Enable digital routing */
 390:.\Generated_Source\PSoC5/cyfitter_cfg.c **** 		CY_SET_XTND_REG8((void CYFAR *)CYREG_BCTL0_BANK_CTL, CY_GET_XTND_REG8((void CYFAR *)CYREG_BCTL0_B
 158              		.loc 1 390 0
 159 005a 684A     		ldr	r2, .L22+16
 160              	.LBB56:
 161              	.LBB55:
  64:.\Generated_Source\PSoC5/cyfitter_cfg.c **** }
 162              		.loc 1 64 0
 163 005c 0024     		movs	r4, #0
 164              	.LVL14:
 165 005e 1C60     		str	r4, [r3]
 166              	.LVL15:
 167              	.LBE55:
 168              	.LBE56:
 169              	.LBB57:
 170              	.LBB58:
 171 0060 9C60     		str	r4, [r3, #8]
ARM GAS  C:\Users\SUZUKI~1\AppData\Local\Temp\ccB7qA2v.s 			page 11


 172              	.LBE58:
 173              	.LBE57:
 174              		.loc 1 390 0
 175 0062 1378     		ldrb	r3, [r2]	@ zero_extendqisi2
 391:.\Generated_Source\PSoC5/cyfitter_cfg.c **** 		CY_SET_XTND_REG8((void CYFAR *)CYREG_BCTL1_BANK_CTL, CY_GET_XTND_REG8((void CYFAR *)CYREG_BCTL1_B
 392:.\Generated_Source\PSoC5/cyfitter_cfg.c **** 
 393:.\Generated_Source\PSoC5/cyfitter_cfg.c **** 		/* Enable UDB array */
 394:.\Generated_Source\PSoC5/cyfitter_cfg.c **** 		CY_SET_XTND_REG8((void CYFAR *)CYREG_PM_ACT_CFG0, CY_GET_XTND_REG8((void CYFAR *)CYREG_PM_ACT_CFG
 176              		.loc 1 394 0
 177 0064 664D     		ldr	r5, .L22+20
 178              	.LVL16:
 390:.\Generated_Source\PSoC5/cyfitter_cfg.c **** 		CY_SET_XTND_REG8((void CYFAR *)CYREG_BCTL1_BANK_CTL, CY_GET_XTND_REG8((void CYFAR *)CYREG_BCTL1_B
 179              		.loc 1 390 0
 180 0066 43F00203 		orr	r3, r3, #2
 181 006a 1370     		strb	r3, [r2]
 391:.\Generated_Source\PSoC5/cyfitter_cfg.c **** 		CY_SET_XTND_REG8((void CYFAR *)CYREG_BCTL1_BANK_CTL, CY_GET_XTND_REG8((void CYFAR *)CYREG_BCTL1_B
 182              		.loc 1 391 0
 183 006c 137C     		ldrb	r3, [r2, #16]	@ zero_extendqisi2
 184              	.LBE46:
 185              	.LBB59:
 186              	.LBB60:
  71:.\Generated_Source\PSoC5/cyfitter_cfg.c **** }
 187              		.loc 1 71 0
 188 006e 654E     		ldr	r6, .L22+24
 189              	.LBE60:
 190              	.LBE59:
 191              	.LBB62:
 391:.\Generated_Source\PSoC5/cyfitter_cfg.c **** 		CY_SET_XTND_REG8((void CYFAR *)CYREG_BCTL1_BANK_CTL, CY_GET_XTND_REG8((void CYFAR *)CYREG_BCTL1_B
 192              		.loc 1 391 0
 193 0070 43F00203 		orr	r3, r3, #2
 194 0074 1374     		strb	r3, [r2, #16]
 195              		.loc 1 394 0
 196 0076 2B78     		ldrb	r3, [r5]	@ zero_extendqisi2
 395:.\Generated_Source\PSoC5/cyfitter_cfg.c **** 		CY_SET_XTND_REG8((void CYFAR *)CYREG_PM_AVAIL_CR2, CY_GET_XTND_REG8((void CYFAR *)CYREG_PM_AVAIL_
 197              		.loc 1 395 0
 198 0078 A2F58632 		sub	r2, r2, #68608
 394:.\Generated_Source\PSoC5/cyfitter_cfg.c **** 		CY_SET_XTND_REG8((void CYFAR *)CYREG_PM_AVAIL_CR2, CY_GET_XTND_REG8((void CYFAR *)CYREG_PM_AVAIL_
 199              		.loc 1 394 0
 200 007c 43F04003 		orr	r3, r3, #64
 201 0080 2B70     		strb	r3, [r5]
 202              		.loc 1 395 0
 203 0082 413A     		subs	r2, r2, #65
 204 0084 1378     		ldrb	r3, [r2]	@ zero_extendqisi2
 205 0086 43F01003 		orr	r3, r3, #16
 206 008a 1370     		strb	r3, [r2]
 207              	.LVL17:
 208              	.LBE62:
 209              	.LBB63:
 210              	.LBB64:
  71:.\Generated_Source\PSoC5/cyfitter_cfg.c **** }
 211              		.loc 1 71 0
 212 008c 5E4B     		ldr	r3, .L22+28
 213 008e 03CB     		ldmia	r3!, {r0, r1}
 214 0090 C2F8000E 		str	r0, [r2, #3584]	@ unaligned
 215 0094 C2F8041E 		str	r1, [r2, #3588]	@ unaligned
 216              	.LVL18:
 217              	.LBE64:
ARM GAS  C:\Users\SUZUKI~1\AppData\Local\Temp\ccB7qA2v.s 			page 12


 218              	.LBE63:
 219              	.LBB65:
 220              	.LBB66:
 221 0098 03CB     		ldmia	r3!, {r0, r1}
 222 009a C2F8300E 		str	r0, [r2, #3632]	@ unaligned
 223 009e C2F8341E 		str	r1, [r2, #3636]	@ unaligned
 224              	.LVL19:
 225              	.LBE66:
 226              	.LBE65:
 227              	.LBB67:
 228              	.LBB68:
 229 00a2 03CB     		ldmia	r3!, {r0, r1}
 230 00a4 C2F8500D 		str	r0, [r2, #3408]	@ unaligned
 231 00a8 C2F8541D 		str	r1, [r2, #3412]	@ unaligned
 232              	.LVL20:
 233              	.LBE68:
 234              	.LBE67:
 235              	.LBB69:
 236              	.LBB70:
 237 00ac 03CB     		ldmia	r3!, {r0, r1}
 238 00ae C2F8600D 		str	r0, [r2, #3424]	@ unaligned
 239 00b2 C2F8641D 		str	r1, [r2, #3428]	@ unaligned
 240              	.LVL21:
 241              	.LBE70:
 242              	.LBE69:
 243              	.LBB71:
 244              	.LBB61:
 245 00b6 93E80700 		ldmia	r3, {r0, r1, r2}
 246 00ba 03C6     		stmia	r6!, {r0, r1}
 247 00bc 3280     		strh	r2, [r6]	@ movhi
 248              	.LBE61:
 249              	.LBE71:
 396:.\Generated_Source\PSoC5/cyfitter_cfg.c **** 	}
 397:.\Generated_Source\PSoC5/cyfitter_cfg.c **** 
 398:.\Generated_Source\PSoC5/cyfitter_cfg.c **** 
 399:.\Generated_Source\PSoC5/cyfitter_cfg.c **** 	/* Perform second pass device configuration. These items must be configured in specific order afte
 400:.\Generated_Source\PSoC5/cyfitter_cfg.c **** 	CYCONFIGCPY((void CYFAR *)(CYREG_PRT12_DM0), (const void CYFAR *)(BS_IOPINS0_7_VAL), 8u);
 401:.\Generated_Source\PSoC5/cyfitter_cfg.c **** 	CYCONFIGCPY((void CYFAR *)(CYREG_PRT15_DM0), (const void CYFAR *)(BS_IOPINS0_8_VAL), 8u);
 402:.\Generated_Source\PSoC5/cyfitter_cfg.c **** 	CYCONFIGCPY((void CYFAR *)(CYREG_PRT1_DM0), (const void CYFAR *)(BS_IOPINS0_1_VAL), 8u);
 403:.\Generated_Source\PSoC5/cyfitter_cfg.c **** 	CYCONFIGCPY((void CYFAR *)(CYREG_PRT2_DM0), (const void CYFAR *)(BS_IOPINS0_2_VAL), 8u);
 404:.\Generated_Source\PSoC5/cyfitter_cfg.c **** 	CYCONFIGCPY((void CYFAR *)(CYREG_PRT3_DR), (const void CYFAR *)(BS_IOPINS0_3_VAL), 10u);
 405:.\Generated_Source\PSoC5/cyfitter_cfg.c **** 	/* Switch Boost to the precision bandgap reference from its internal reference */
 406:.\Generated_Source\PSoC5/cyfitter_cfg.c **** 	CY_SET_REG8((void CYXDATA *)CYREG_BOOST_CR2, (CY_GET_REG8((void CYXDATA *)CYREG_BOOST_CR2) | 0x08u
 250              		.loc 1 406 0
 251 00be 534A     		ldr	r2, .L22+32
 252              	.LBB72:
 253              	.LBB73:
 212:.\Generated_Source\PSoC5/cyfitter_cfg.c **** 	CY_SET_XTND_REG8((void CYFAR *)(CYREG_CLKDIST_DCFG1_CFG0 + 0x2u), 0x18u);
 254              		.loc 1 212 0
 255 00c0 1321     		movs	r1, #19
 256              	.LBE73:
 257              	.LBE72:
 258              		.loc 1 406 0
 259 00c2 1378     		ldrb	r3, [r2]	@ zero_extendqisi2
 260              	.LBB77:
 261              	.LBB74:
 210:.\Generated_Source\PSoC5/cyfitter_cfg.c **** 	CY_SET_XTND_REG8((void CYFAR *)(CYREG_CLKDIST_DCFG0_CFG0 + 0x2u), 0x18u);
ARM GAS  C:\Users\SUZUKI~1\AppData\Local\Temp\ccB7qA2v.s 			page 13


 262              		.loc 1 210 0
 263 00c4 A2F2A222 		subw	r2, r2, #674
 264              	.LBE74:
 265              	.LBE77:
 266              		.loc 1 406 0
 267 00c8 43F00803 		orr	r3, r3, #8
 268 00cc 82F8A232 		strb	r3, [r2, #674]
 407:.\Generated_Source\PSoC5/cyfitter_cfg.c **** 
 408:.\Generated_Source\PSoC5/cyfitter_cfg.c **** 	/* Set Flash Cycles based on max possible frequency in case a glitch occurs during ClockSetup(). *
 409:.\Generated_Source\PSoC5/cyfitter_cfg.c **** 	CY_SET_XTND_REG8((void CYFAR *)(CYREG_CACHE_CC_CTL), (((CYDEV_INSTRUCT_CACHE_ENABLED) != 0) ? 0x01
 269              		.loc 1 409 0
 270 00d0 0123     		movs	r3, #1
 271 00d2 82F88037 		strb	r3, [r2, #1920]
 272              	.LBB78:
 273              	.LBB75:
 210:.\Generated_Source\PSoC5/cyfitter_cfg.c **** 	CY_SET_XTND_REG8((void CYFAR *)(CYREG_CLKDIST_DCFG0_CFG0 + 0x2u), 0x18u);
 274              		.loc 1 210 0
 275 00d6 1380     		strh	r3, [r2]	@ movhi
 211:.\Generated_Source\PSoC5/cyfitter_cfg.c **** 	CY_SET_XTND_REG16((void CYFAR *)(CYREG_CLKDIST_DCFG1_CFG0), 0x0013u);
 276              		.loc 1 211 0
 277 00d8 1823     		movs	r3, #24
 278 00da 9370     		strb	r3, [r2, #2]
 212:.\Generated_Source\PSoC5/cyfitter_cfg.c **** 	CY_SET_XTND_REG8((void CYFAR *)(CYREG_CLKDIST_DCFG1_CFG0 + 0x2u), 0x18u);
 279              		.loc 1 212 0
 280 00dc 9180     		strh	r1, [r2, #4]	@ movhi
 213:.\Generated_Source\PSoC5/cyfitter_cfg.c **** 	CY_SET_XTND_REG16((void CYFAR *)(CYREG_CLKDIST_DCFG2_CFG0), 0x03E7u);
 281              		.loc 1 213 0
 282 00de 9371     		strb	r3, [r2, #6]
 214:.\Generated_Source\PSoC5/cyfitter_cfg.c **** 	CY_SET_XTND_REG8((void CYFAR *)(CYREG_CLKDIST_DCFG2_CFG0 + 0x2u), 0x1Bu);
 283              		.loc 1 214 0
 284 00e0 40F2E732 		movw	r2, #999
 285 00e4 4A4B     		ldr	r3, .L22+36
 222:.\Generated_Source\PSoC5/cyfitter_cfg.c **** 	CY_SET_XTND_REG8((void CYFAR *)(CYREG_IMO_TR1), (CY_GET_XTND_REG8((void CYFAR *)CYREG_FLSHID_CUST_
 286              		.loc 1 222 0
 287 00e6 0321     		movs	r1, #3
 214:.\Generated_Source\PSoC5/cyfitter_cfg.c **** 	CY_SET_XTND_REG8((void CYFAR *)(CYREG_CLKDIST_DCFG2_CFG0 + 0x2u), 0x1Bu);
 288              		.loc 1 214 0
 289 00e8 1A80     		strh	r2, [r3]	@ movhi
 215:.\Generated_Source\PSoC5/cyfitter_cfg.c **** 
 290              		.loc 1 215 0
 291 00ea 1B22     		movs	r2, #27
 292 00ec 9A70     		strb	r2, [r3, #2]
 218:.\Generated_Source\PSoC5/cyfitter_cfg.c **** 	CY_SET_XTND_REG8((void CYFAR *)(CYREG_CLKDIST_CR), 0x08u);
 293              		.loc 1 218 0
 294 00ee 0222     		movs	r2, #2
 295 00f0 83F87822 		strb	r2, [r3, #632]
 219:.\Generated_Source\PSoC5/cyfitter_cfg.c **** 
 296              		.loc 1 219 0
 297 00f4 0822     		movs	r2, #8
 298 00f6 4FF04023 		mov	r3, #1073758208
 299 00fa 1A70     		strb	r2, [r3]
 222:.\Generated_Source\PSoC5/cyfitter_cfg.c **** 	CY_SET_XTND_REG8((void CYFAR *)(CYREG_IMO_TR1), (CY_GET_XTND_REG8((void CYFAR *)CYREG_FLSHID_CUST_
 300              		.loc 1 222 0
 301 00fc 83F80012 		strb	r1, [r3, #512]
 223:.\Generated_Source\PSoC5/cyfitter_cfg.c **** 
 302              		.loc 1 223 0
 303 0100 444B     		ldr	r3, .L22+40
ARM GAS  C:\Users\SUZUKI~1\AppData\Local\Temp\ccB7qA2v.s 			page 14


 304 0102 4549     		ldr	r1, .L22+44
 305 0104 1B78     		ldrb	r3, [r3]	@ zero_extendqisi2
 227:.\Generated_Source\PSoC5/cyfitter_cfg.c **** 	/* Wait up to 250us for the PLL to lock */
 306              		.loc 1 227 0
 307 0106 1926     		movs	r6, #25
 223:.\Generated_Source\PSoC5/cyfitter_cfg.c **** 
 308              		.loc 1 223 0
 309 0108 DBB2     		uxtb	r3, r3
 310 010a 0B70     		strb	r3, [r1]
 226:.\Generated_Source\PSoC5/cyfitter_cfg.c **** 	CY_SET_XTND_REG16((void CYFAR *)(CYREG_FASTCLK_PLL_CFG0), 0x1251u);
 311              		.loc 1 226 0
 312 010c 434B     		ldr	r3, .L22+48
 313 010e 1A80     		strh	r2, [r3]	@ movhi
 227:.\Generated_Source\PSoC5/cyfitter_cfg.c **** 	/* Wait up to 250us for the PLL to lock */
 314              		.loc 1 227 0
 315 0110 41F25122 		movw	r2, #4689
 316 0114 23F8022C 		strh	r2, [r3, #-2]	@ movhi
 317              	.LVL22:
 318              	.L13:
 232:.\Generated_Source\PSoC5/cyfitter_cfg.c **** 		CyDelayCycles(10u * 48u); /* Delay 10us based on 48MHz clock */
 319              		.loc 1 232 0
 320 0118 414B     		ldr	r3, .L22+52
 233:.\Generated_Source\PSoC5/cyfitter_cfg.c **** 	}
 321              		.loc 1 233 0
 322 011a 4FF4F070 		mov	r0, #480
 232:.\Generated_Source\PSoC5/cyfitter_cfg.c **** 		CyDelayCycles(10u * 48u); /* Delay 10us based on 48MHz clock */
 323              		.loc 1 232 0
 324 011e 1B78     		ldrb	r3, [r3]	@ zero_extendqisi2
 325 0120 03F00103 		and	r3, r3, #1
 326 0124 43EA4404 		orr	r4, r3, r4, lsl #1
 327              	.LVL23:
 233:.\Generated_Source\PSoC5/cyfitter_cfg.c **** 	}
 328              		.loc 1 233 0
 329 0128 FFF7FEFF 		bl	CyDelayCycles
 330              	.LVL24:
 230:.\Generated_Source\PSoC5/cyfitter_cfg.c **** 	{ 
 331              		.loc 1 230 0
 332 012c 013E     		subs	r6, r6, #1
 333              	.LVL25:
 232:.\Generated_Source\PSoC5/cyfitter_cfg.c **** 		CyDelayCycles(10u * 48u); /* Delay 10us based on 48MHz clock */
 334              		.loc 1 232 0
 335 012e 04F00304 		and	r4, r4, #3
 336              	.LVL26:
 230:.\Generated_Source\PSoC5/cyfitter_cfg.c **** 	{ 
 337              		.loc 1 230 0
 338 0132 59D0     		beq	.L12
 339              	.LVL27:
 340 0134 032C     		cmp	r4, #3
 341 0136 EFD1     		bne	.L13
 242:.\Generated_Source\PSoC5/cyfitter_cfg.c **** 	CY_SET_XTND_REG8((void CYFAR *)(CYREG_CLKDIST_MSTR0), 0x07u);
 342              		.loc 1 242 0
 343 0138 3A4B     		ldr	r3, .L22+56
 344 013a 4FF48072 		mov	r2, #256
 345 013e 1A80     		strh	r2, [r3]	@ movhi
 244:.\Generated_Source\PSoC5/cyfitter_cfg.c **** 	CY_SET_XTND_REG8((void CYFAR *)(CYREG_CLKDIST_BCFG2), 0x48u);
 346              		.loc 1 244 0
 347 0140 3949     		ldr	r1, .L22+60
ARM GAS  C:\Users\SUZUKI~1\AppData\Local\Temp\ccB7qA2v.s 			page 15


 243:.\Generated_Source\PSoC5/cyfitter_cfg.c **** 	CY_SET_XTND_REG8((void CYFAR *)(CYREG_CLKDIST_BCFG0), 0x00u);
 348              		.loc 1 243 0
 349 0142 0722     		movs	r2, #7
 350 0144 1A70     		strb	r2, [r3]
 245:.\Generated_Source\PSoC5/cyfitter_cfg.c **** 	CY_SET_XTND_REG8((void CYFAR *)(CYREG_CLKDIST_MSTR0), 0x00u);
 351              		.loc 1 245 0
 352 0146 4820     		movs	r0, #72
 244:.\Generated_Source\PSoC5/cyfitter_cfg.c **** 	CY_SET_XTND_REG8((void CYFAR *)(CYREG_CLKDIST_BCFG2), 0x48u);
 353              		.loc 1 244 0
 354 0148 0022     		movs	r2, #0
 355 014a 0A70     		strb	r2, [r1]
 245:.\Generated_Source\PSoC5/cyfitter_cfg.c **** 	CY_SET_XTND_REG8((void CYFAR *)(CYREG_CLKDIST_MSTR0), 0x00u);
 356              		.loc 1 245 0
 357 014c 8870     		strb	r0, [r1, #2]
 246:.\Generated_Source\PSoC5/cyfitter_cfg.c **** 	CY_SET_XTND_REG8((void CYFAR *)(CYREG_CLKDIST_LD), 0x02u);
 358              		.loc 1 246 0
 359 014e 1A70     		strb	r2, [r3]
 247:.\Generated_Source\PSoC5/cyfitter_cfg.c **** 
 360              		.loc 1 247 0
 361 0150 0221     		movs	r1, #2
 249:.\Generated_Source\PSoC5/cyfitter_cfg.c **** }
 362              		.loc 1 249 0
 363 0152 364A     		ldr	r2, .L22+64
 247:.\Generated_Source\PSoC5/cyfitter_cfg.c **** 
 364              		.loc 1 247 0
 365 0154 03F8031C 		strb	r1, [r3, #-3]
 249:.\Generated_Source\PSoC5/cyfitter_cfg.c **** }
 366              		.loc 1 249 0
 367 0158 1378     		ldrb	r3, [r2]	@ zero_extendqisi2
 368              	.LBE75:
 369              	.LBE78:
 370              	.LBB79:
 371              	.LBB80:
 275:.\Generated_Source\PSoC5/cyfitter_cfg.c **** 	uint8 cr5 = CY_GET_XTND_REG8((void CYFAR *)(CYREG_RESET_CR5));
 372              		.loc 1 275 0
 373 015a 354F     		ldr	r7, .L22+68
 374              	.LBE80:
 375              	.LBE79:
 376              	.LBB83:
 377              	.LBB76:
 249:.\Generated_Source\PSoC5/cyfitter_cfg.c **** }
 378              		.loc 1 249 0
 379 015c 43F00703 		orr	r3, r3, #7
 380 0160 1370     		strb	r3, [r2]
 381              	.LBE76:
 382              	.LBE83:
 410:.\Generated_Source\PSoC5/cyfitter_cfg.c **** 	/* Setup clocks based on selections from Clock DWR */
 411:.\Generated_Source\PSoC5/cyfitter_cfg.c **** 	ClockSetup();
 412:.\Generated_Source\PSoC5/cyfitter_cfg.c **** 	/* Set Flash Cycles based on newly configured 24.00MHz Bus Clock. */
 413:.\Generated_Source\PSoC5/cyfitter_cfg.c **** 	CY_SET_XTND_REG8((void CYFAR *)(CYREG_CACHE_CC_CTL), (((CYDEV_INSTRUCT_CACHE_ENABLED) != 0) ? 0x81
 383              		.loc 1 413 0
 384 0162 344B     		ldr	r3, .L22+72
 385 0164 8122     		movs	r2, #129
 386 0166 1A70     		strb	r2, [r3]
 414:.\Generated_Source\PSoC5/cyfitter_cfg.c **** 	CY_SET_XTND_REG8((void CYFAR *)(CYREG_PANTHER_WAITPIPE), 0x01u);
 387              		.loc 1 414 0
 388 0168 03F5F723 		add	r3, r3, #505856
ARM GAS  C:\Users\SUZUKI~1\AppData\Local\Temp\ccB7qA2v.s 			page 16


 389 016c 0122     		movs	r2, #1
 390 016e 0433     		adds	r3, r3, #4
 391 0170 1A70     		strb	r2, [r3]
 392              	.LBB84:
 393              	.LBB81:
 274:.\Generated_Source\PSoC5/cyfitter_cfg.c **** 	uint8 cr4 = CY_GET_XTND_REG8((void CYFAR *)(CYREG_RESET_CR4));
 394              		.loc 1 274 0
 395 0172 314B     		ldr	r3, .L22+76
 276:.\Generated_Source\PSoC5/cyfitter_cfg.c **** 	CY_SET_XTND_REG8((void CYFAR *)(CYREG_BG_DFT0), (bg_xover_inl_trim & 0x07u));
 396              		.loc 1 276 0
 397 0174 DFF8E080 		ldr	r8, .L22+108
 274:.\Generated_Source\PSoC5/cyfitter_cfg.c **** 	uint8 cr4 = CY_GET_XTND_REG8((void CYFAR *)(CYREG_RESET_CR4));
 398              		.loc 1 274 0
 399 0178 1B78     		ldrb	r3, [r3]	@ zero_extendqisi2
 275:.\Generated_Source\PSoC5/cyfitter_cfg.c **** 	uint8 cr5 = CY_GET_XTND_REG8((void CYFAR *)(CYREG_RESET_CR5));
 400              		.loc 1 275 0
 401 017a 3C78     		ldrb	r4, [r7]	@ zero_extendqisi2
 402              	.LVL28:
 277:.\Generated_Source\PSoC5/cyfitter_cfg.c **** 	CY_SET_XTND_REG8((void CYFAR *)(CYREG_BG_DFT1), ((bg_xover_inl_trim >> 4) & 0x0Fu));
 403              		.loc 1 277 0
 404 017c 2F48     		ldr	r0, .L22+80
 276:.\Generated_Source\PSoC5/cyfitter_cfg.c **** 	CY_SET_XTND_REG8((void CYFAR *)(CYREG_BG_DFT0), (bg_xover_inl_trim & 0x07u));
 405              		.loc 1 276 0
 406 017e 98F80060 		ldrb	r6, [r8]	@ zero_extendqisi2
 407              	.LVL29:
 274:.\Generated_Source\PSoC5/cyfitter_cfg.c **** 	uint8 cr4 = CY_GET_XTND_REG8((void CYFAR *)(CYREG_RESET_CR4));
 408              		.loc 1 274 0
 409 0182 DBB2     		uxtb	r3, r3
 410              	.LVL30:
 275:.\Generated_Source\PSoC5/cyfitter_cfg.c **** 	uint8 cr5 = CY_GET_XTND_REG8((void CYFAR *)(CYREG_RESET_CR5));
 411              		.loc 1 275 0
 412 0184 E4B2     		uxtb	r4, r4
 413              	.LVL31:
 277:.\Generated_Source\PSoC5/cyfitter_cfg.c **** 	CY_SET_XTND_REG8((void CYFAR *)(CYREG_BG_DFT1), ((bg_xover_inl_trim >> 4) & 0x0Fu));
 414              		.loc 1 277 0
 415 0186 03F0070E 		and	lr, r3, #7
 278:.\Generated_Source\PSoC5/cyfitter_cfg.c **** 	/* Disable PRES while setting up SAR voltage reference */
 416              		.loc 1 278 0
 417 018a 1B09     		lsrs	r3, r3, #4
 418              	.LVL32:
 277:.\Generated_Source\PSoC5/cyfitter_cfg.c **** 	CY_SET_XTND_REG8((void CYFAR *)(CYREG_BG_DFT1), ((bg_xover_inl_trim >> 4) & 0x0Fu));
 419              		.loc 1 277 0
 420 018c 80F800E0 		strb	lr, [r0]
 276:.\Generated_Source\PSoC5/cyfitter_cfg.c **** 	CY_SET_XTND_REG8((void CYFAR *)(CYREG_BG_DFT0), (bg_xover_inl_trim & 0x07u));
 421              		.loc 1 276 0
 422 0190 F6B2     		uxtb	r6, r6
 423              	.LVL33:
 278:.\Generated_Source\PSoC5/cyfitter_cfg.c **** 	/* Disable PRES while setting up SAR voltage reference */
 424              		.loc 1 278 0
 425 0192 4370     		strb	r3, [r0, #1]
 280:.\Generated_Source\PSoC5/cyfitter_cfg.c **** 	CY_SET_XTND_REG8((void CYFAR *)(CYREG_RESET_CR5), (cr5 | 0x03u));
 426              		.loc 1 280 0
 427 0194 44F00303 		orr	r3, r4, #3
 428 0198 3B70     		strb	r3, [r7]
 281:.\Generated_Source\PSoC5/cyfitter_cfg.c **** 	CY_SET_XTND_REG8((void CYFAR *)CYREG_PRT3_AMUX, 0x02u);
 429              		.loc 1 281 0
 430 019a 46F00303 		orr	r3, r6, #3
ARM GAS  C:\Users\SUZUKI~1\AppData\Local\Temp\ccB7qA2v.s 			page 17


 431 019e 88F80030 		strb	r3, [r8]
 282:.\Generated_Source\PSoC5/cyfitter_cfg.c **** 	CY_SET_XTND_REG8((void CYFAR *)CYREG_PRT15_AG, 0x02u);
 432              		.loc 1 282 0
 433 01a2 274B     		ldr	r3, .L22+84
 291:.\Generated_Source\PSoC5/cyfitter_cfg.c **** 	CY_SET_XTND_REG8((void CYFAR *)(CYREG_RESET_CR5), (cr5));
 434              		.loc 1 291 0
 435 01a4 0A20     		movs	r0, #10
 282:.\Generated_Source\PSoC5/cyfitter_cfg.c **** 	CY_SET_XTND_REG8((void CYFAR *)CYREG_PRT15_AG, 0x02u);
 436              		.loc 1 282 0
 437 01a6 1970     		strb	r1, [r3]
 283:.\Generated_Source\PSoC5/cyfitter_cfg.c **** 	CY_SET_XTND_REG8((void CYFAR *)CYREG_SAR0_CSR1, 0x40u);
 438              		.loc 1 283 0
 439 01a8 83F8C110 		strb	r1, [r3, #193]
 284:.\Generated_Source\PSoC5/cyfitter_cfg.c **** 	CY_SET_XTND_REG8((void CYFAR *)CYREG_SAR0_CSR3, 0x40u);
 440              		.loc 1 284 0
 441 01ac 2549     		ldr	r1, .L22+88
 442 01ae 4023     		movs	r3, #64
 443 01b0 0B70     		strb	r3, [r1]
 285:.\Generated_Source\PSoC5/cyfitter_cfg.c **** 	CY_SET_XTND_REG8((void CYFAR *)CYREG_DAC0_SW3, 0x01u);
 444              		.loc 1 285 0
 445 01b2 8B70     		strb	r3, [r1, #2]
 286:.\Generated_Source\PSoC5/cyfitter_cfg.c **** 	CY_SET_XTND_REG8((void CYFAR *)CYREG_SAR0_SW0, 0x20u);
 446              		.loc 1 286 0
 447 01b4 244B     		ldr	r3, .L22+92
 448 01b6 1A70     		strb	r2, [r3]
 287:.\Generated_Source\PSoC5/cyfitter_cfg.c **** 	CY_SET_XTND_REG8((void CYFAR *)CYREG_SAR0_SW3, 0x20u);
 449              		.loc 1 287 0
 450 01b8 2023     		movs	r3, #32
 451 01ba 81F81F32 		strb	r3, [r1, #543]
 288:.\Generated_Source\PSoC5/cyfitter_cfg.c **** 	CY_SET_XTND_REG8((void CYFAR *)CYREG_BUS_SW0, 0x20u);
 452              		.loc 1 288 0
 453 01be 81F82232 		strb	r3, [r1, #546]
 289:.\Generated_Source\PSoC5/cyfitter_cfg.c **** 	CY_SET_XTND_REG8((void CYFAR *)CYREG_BUS_SW3, 0x01u);
 454              		.loc 1 289 0
 455 01c2 81F85732 		strb	r3, [r1, #599]
 290:.\Generated_Source\PSoC5/cyfitter_cfg.c **** 	CyDelayUs(10u); /* Allow vref to settle before re-enabling PRES */
 456              		.loc 1 290 0
 457 01c6 214B     		ldr	r3, .L22+96
 458 01c8 1A70     		strb	r2, [r3]
 291:.\Generated_Source\PSoC5/cyfitter_cfg.c **** 	CY_SET_XTND_REG8((void CYFAR *)(CYREG_RESET_CR5), (cr5));
 459              		.loc 1 291 0
 460 01ca FFF7FEFF 		bl	CyDelayUs
 461              	.LVL34:
 294:.\Generated_Source\PSoC5/cyfitter_cfg.c **** }
 462              		.loc 1 294 0
 463 01ce 204B     		ldr	r3, .L22+100
 292:.\Generated_Source\PSoC5/cyfitter_cfg.c **** 	CY_SET_XTND_REG8((void CYFAR *)(CYREG_RESET_CR4), (cr4));
 464              		.loc 1 292 0
 465 01d0 88F80060 		strb	r6, [r8]
 294:.\Generated_Source\PSoC5/cyfitter_cfg.c **** }
 466              		.loc 1 294 0
 467 01d4 4422     		movs	r2, #68
 293:.\Generated_Source\PSoC5/cyfitter_cfg.c **** 	CY_SET_XTND_REG8((void CYFAR *)CYREG_PUMP_CR0, 0x44u);
 468              		.loc 1 293 0
 469 01d6 3C70     		strb	r4, [r7]
 470              	.LBE81:
 471              	.LBE84:
ARM GAS  C:\Users\SUZUKI~1\AppData\Local\Temp\ccB7qA2v.s 			page 18


 472              	.LBB85:
 473              	.LBB86:
  71:.\Generated_Source\PSoC5/cyfitter_cfg.c **** }
 474              		.loc 1 71 0
 475 01d8 1E4C     		ldr	r4, .L22+104
 476              	.LVL35:
 477              	.LBE86:
 478              	.LBE85:
 479              	.LBB88:
 480              	.LBB82:
 294:.\Generated_Source\PSoC5/cyfitter_cfg.c **** }
 481              		.loc 1 294 0
 482 01da 1A70     		strb	r2, [r3]
 483              	.LVL36:
 484              	.LBE82:
 485              	.LBE88:
 486              	.LBB89:
 487              	.LBB87:
  71:.\Generated_Source\PSoC5/cyfitter_cfg.c **** }
 488              		.loc 1 71 0
 489 01dc 95E80F00 		ldmia	r5, {r0, r1, r2, r3}
 490 01e0 07C4     		stmia	r4!, {r0, r1, r2}
 491 01e2 2380     		strh	r3, [r4]	@ movhi
 492 01e4 BDE8F081 		pop	{r4, r5, r6, r7, r8, pc}
 493              	.LVL37:
 494              	.L12:
 495 01e8 FEE7     		b	.L12
 496              	.L23:
 497 01ea 00BF     		.align	2
 498              	.L22:
 499 01ec 00000000 		.word	.LANCHOR0
 500 01f0 FCFFFF47 		.word	1207959548
 501 01f4 50000048 		.word	1207959632
 502 01f8 00760040 		.word	1073772032
 503 01fc 03500140 		.word	1073827843
 504 0200 A0430040 		.word	1073759136
 505 0204 30510040 		.word	1073762608
 506 0208 28010048 		.word	1207959848
 507 020c 22430040 		.word	1073759010
 508 0210 88400040 		.word	1073758344
 509 0214 08010049 		.word	1224737032
 510 0218 A1460040 		.word	1073759905
 511 021c 22420040 		.word	1073758754
 512 0220 25420040 		.word	1073758757
 513 0224 04400040 		.word	1073758212
 514 0228 06400040 		.word	1073758214
 515 022c A2430040 		.word	1073759138
 516 0230 F8460040 		.word	1073759992
 517 0234 00480040 		.word	1073760256
 518 0238 CF010049 		.word	1224737231
 519 023c 6E580040 		.word	1073764462
 520 0240 3C510040 		.word	1073762620
 521 0244 01590040 		.word	1073764609
 522 0248 835A0040 		.word	1073764995
 523 024c 5B5B0040 		.word	1073765211
 524 0250 76580040 		.word	1073764470
 525 0254 B0430040 		.word	1073759152
ARM GAS  C:\Users\SUZUKI~1\AppData\Local\Temp\ccB7qA2v.s 			page 19


 526 0258 F9460040 		.word	1073759993
 527              	.LBE87:
 528              	.LBE89:
 529              		.cfi_endproc
 530              	.LFE8:
 531              		.size	cyfitter_cfg, .-cyfitter_cfg
 532              		.section	.rodata
 533              		.set	.LANCHOR0,. + 0
 534              		.type	cfg_memset_list.4882, %object
 535              		.size	cfg_memset_list.4882, 42
 536              	cfg_memset_list.4882:
 537 0000 00510040 		.4byte	1073762560
 538 0004 1000     		.2byte	16
 539 0006 40510040 		.4byte	1073762624
 540 000a 3000     		.2byte	48
 541 000c 00000140 		.4byte	1073807360
 542 0010 0010     		.2byte	4096
 543 0012 00140140 		.4byte	1073812480
 544 0016 0008     		.2byte	2048
 545 0018 00400140 		.4byte	1073823744
 546 001c 000A     		.2byte	2560
 547 001e 004C0140 		.4byte	1073826816
 548 0022 0002     		.2byte	512
 549 0024 00500140 		.4byte	1073827840
 550 0028 2000     		.2byte	32
 551              		.text
 552              	.Letext0:
 553              		.file 2 "c:\\program files (x86)\\cypress\\psoc creator\\3.3\\psoc creator\\import\\gnu\\arm\\4.9.
 554              		.file 3 ".\\Generated_Source\\PSoC5\\cytypes.h"
 555              		.file 4 ".\\Generated_Source\\PSoC5\\CyLib.h"