ARM GAS  C:\Users\SUZUKI~1\AppData\Local\Temp\ccSEgKfM.s 			page 1


   1              		.syntax unified
   2              		.cpu cortex-m3
   3              		.fpu softvfp
   4              		.eabi_attribute 20, 1
   5              		.eabi_attribute 21, 1
   6              		.eabi_attribute 23, 3
   7              		.eabi_attribute 24, 1
   8              		.eabi_attribute 25, 1
   9              		.eabi_attribute 26, 1
  10              		.eabi_attribute 30, 4
  11              		.eabi_attribute 34, 1
  12              		.eabi_attribute 18, 4
  13              		.thumb
  14              		.file	"DAC_PM.c"
  15              		.text
  16              	.Ltext0:
  17              		.cfi_sections	.debug_frame
  18              		.section	.text.DAC_SaveConfig,"ax",%progbits
  19              		.align	1
  20              		.global	DAC_SaveConfig
  21              		.thumb
  22              		.thumb_func
  23              		.type	DAC_SaveConfig, %function
  24              	DAC_SaveConfig:
  25              	.LFB0:
  26              		.file 1 ".\\Generated_Source\\PSoC5\\DAC_PM.c"
   1:.\Generated_Source\PSoC5/DAC_PM.c **** /*******************************************************************************
   2:.\Generated_Source\PSoC5/DAC_PM.c **** * File Name: DAC_PM.c  
   3:.\Generated_Source\PSoC5/DAC_PM.c **** * Version 1.90
   4:.\Generated_Source\PSoC5/DAC_PM.c **** *
   5:.\Generated_Source\PSoC5/DAC_PM.c **** * Description:
   6:.\Generated_Source\PSoC5/DAC_PM.c **** *  This file provides the power management source code to API for the
   7:.\Generated_Source\PSoC5/DAC_PM.c **** *  VDAC8.  
   8:.\Generated_Source\PSoC5/DAC_PM.c **** *
   9:.\Generated_Source\PSoC5/DAC_PM.c **** * Note:
  10:.\Generated_Source\PSoC5/DAC_PM.c **** *  None
  11:.\Generated_Source\PSoC5/DAC_PM.c **** *
  12:.\Generated_Source\PSoC5/DAC_PM.c **** ********************************************************************************
  13:.\Generated_Source\PSoC5/DAC_PM.c **** * Copyright 2008-2012, Cypress Semiconductor Corporation.  All rights reserved.
  14:.\Generated_Source\PSoC5/DAC_PM.c **** * You may use this file only in accordance with the license, terms, conditions, 
  15:.\Generated_Source\PSoC5/DAC_PM.c **** * disclaimers, and limitations in the end user license agreement accompanying 
  16:.\Generated_Source\PSoC5/DAC_PM.c **** * the software package with which this file was provided.
  17:.\Generated_Source\PSoC5/DAC_PM.c **** *******************************************************************************/
  18:.\Generated_Source\PSoC5/DAC_PM.c **** 
  19:.\Generated_Source\PSoC5/DAC_PM.c **** #include "DAC.h"
  20:.\Generated_Source\PSoC5/DAC_PM.c **** 
  21:.\Generated_Source\PSoC5/DAC_PM.c **** static DAC_backupStruct DAC_backup;
  22:.\Generated_Source\PSoC5/DAC_PM.c **** 
  23:.\Generated_Source\PSoC5/DAC_PM.c **** 
  24:.\Generated_Source\PSoC5/DAC_PM.c **** /*******************************************************************************
  25:.\Generated_Source\PSoC5/DAC_PM.c **** * Function Name: DAC_SaveConfig
  26:.\Generated_Source\PSoC5/DAC_PM.c **** ********************************************************************************
  27:.\Generated_Source\PSoC5/DAC_PM.c **** * Summary:
  28:.\Generated_Source\PSoC5/DAC_PM.c **** *  Save the current user configuration
  29:.\Generated_Source\PSoC5/DAC_PM.c **** *
  30:.\Generated_Source\PSoC5/DAC_PM.c **** * Parameters:  
  31:.\Generated_Source\PSoC5/DAC_PM.c **** *  void  
ARM GAS  C:\Users\SUZUKI~1\AppData\Local\Temp\ccSEgKfM.s 			page 2


  32:.\Generated_Source\PSoC5/DAC_PM.c **** *
  33:.\Generated_Source\PSoC5/DAC_PM.c **** * Return: 
  34:.\Generated_Source\PSoC5/DAC_PM.c **** *  void
  35:.\Generated_Source\PSoC5/DAC_PM.c **** *
  36:.\Generated_Source\PSoC5/DAC_PM.c **** *******************************************************************************/
  37:.\Generated_Source\PSoC5/DAC_PM.c **** void DAC_SaveConfig(void) 
  38:.\Generated_Source\PSoC5/DAC_PM.c **** {
  27              		.loc 1 38 0
  28              		.cfi_startproc
  29              		@ args = 0, pretend = 0, frame = 0
  30              		@ frame_needed = 0, uses_anonymous_args = 0
  31              		@ link register save eliminated.
  39:.\Generated_Source\PSoC5/DAC_PM.c ****     if (!((DAC_CR1 & DAC_SRC_MASK) == DAC_SRC_UDB))
  32              		.loc 1 39 0
  33 0000 044B     		ldr	r3, .L3
  34 0002 1B78     		ldrb	r3, [r3]	@ zero_extendqisi2
  35 0004 9B06     		lsls	r3, r3, #26
  40:.\Generated_Source\PSoC5/DAC_PM.c ****     {
  41:.\Generated_Source\PSoC5/DAC_PM.c ****         DAC_backup.data_value = DAC_Data;
  36              		.loc 1 41 0
  37 0006 5FBF     		itttt	pl
  38 0008 034B     		ldrpl	r3, .L3+4
  39 000a 1A78     		ldrbpl	r2, [r3]	@ zero_extendqisi2
  40 000c 034B     		ldrpl	r3, .L3+8
  41 000e 5A70     		strbpl	r2, [r3, #1]
  42 0010 7047     		bx	lr
  43              	.L4:
  44 0012 00BF     		.align	2
  45              	.L3:
  46 0014 21580040 		.word	1073764385
  47 0018 805B0040 		.word	1073765248
  48 001c 00000000 		.word	.LANCHOR0
  49              		.cfi_endproc
  50              	.LFE0:
  51              		.size	DAC_SaveConfig, .-DAC_SaveConfig
  52              		.section	.text.DAC_RestoreConfig,"ax",%progbits
  53              		.align	1
  54              		.global	DAC_RestoreConfig
  55              		.thumb
  56              		.thumb_func
  57              		.type	DAC_RestoreConfig, %function
  58              	DAC_RestoreConfig:
  59              	.LFB1:
  42:.\Generated_Source\PSoC5/DAC_PM.c ****     }
  43:.\Generated_Source\PSoC5/DAC_PM.c **** }
  44:.\Generated_Source\PSoC5/DAC_PM.c **** 
  45:.\Generated_Source\PSoC5/DAC_PM.c **** 
  46:.\Generated_Source\PSoC5/DAC_PM.c **** /*******************************************************************************
  47:.\Generated_Source\PSoC5/DAC_PM.c **** * Function Name: DAC_RestoreConfig
  48:.\Generated_Source\PSoC5/DAC_PM.c **** ********************************************************************************
  49:.\Generated_Source\PSoC5/DAC_PM.c **** *
  50:.\Generated_Source\PSoC5/DAC_PM.c **** * Summary:
  51:.\Generated_Source\PSoC5/DAC_PM.c **** *  Restores the current user configuration.
  52:.\Generated_Source\PSoC5/DAC_PM.c **** *
  53:.\Generated_Source\PSoC5/DAC_PM.c **** * Parameters:  
  54:.\Generated_Source\PSoC5/DAC_PM.c **** *  void
  55:.\Generated_Source\PSoC5/DAC_PM.c **** *
ARM GAS  C:\Users\SUZUKI~1\AppData\Local\Temp\ccSEgKfM.s 			page 3


  56:.\Generated_Source\PSoC5/DAC_PM.c **** * Return: 
  57:.\Generated_Source\PSoC5/DAC_PM.c **** *  void
  58:.\Generated_Source\PSoC5/DAC_PM.c **** *
  59:.\Generated_Source\PSoC5/DAC_PM.c **** *******************************************************************************/
  60:.\Generated_Source\PSoC5/DAC_PM.c **** void DAC_RestoreConfig(void) 
  61:.\Generated_Source\PSoC5/DAC_PM.c **** {
  60              		.loc 1 61 0
  61              		.cfi_startproc
  62              		@ args = 0, pretend = 0, frame = 0
  63              		@ frame_needed = 0, uses_anonymous_args = 0
  64              		@ link register save eliminated.
  62:.\Generated_Source\PSoC5/DAC_PM.c ****     if (!((DAC_CR1 & DAC_SRC_MASK) == DAC_SRC_UDB))
  65              		.loc 1 62 0
  66 0000 0C4B     		ldr	r3, .L9
  67 0002 1B78     		ldrb	r3, [r3]	@ zero_extendqisi2
  68 0004 9B06     		lsls	r3, r3, #26
  69 0006 13D4     		bmi	.L5
  63:.\Generated_Source\PSoC5/DAC_PM.c ****     {
  64:.\Generated_Source\PSoC5/DAC_PM.c ****         if((DAC_Strobe & DAC_STRB_MASK) == DAC_STRB_EN)
  70              		.loc 1 64 0
  71 0008 0B4B     		ldr	r3, .L9+4
  72 000a 0C48     		ldr	r0, .L9+8
  73 000c 1A78     		ldrb	r2, [r3]	@ zero_extendqisi2
  74 000e 0C49     		ldr	r1, .L9+12
  75 0010 12F0080F 		tst	r2, #8
  76 0014 0AD0     		beq	.L7
  77              	.LBB4:
  78              	.LBB5:
  65:.\Generated_Source\PSoC5/DAC_PM.c ****         {
  66:.\Generated_Source\PSoC5/DAC_PM.c ****             DAC_Strobe &= (uint8)(~DAC_STRB_MASK);
  79              		.loc 1 66 0
  80 0016 1A78     		ldrb	r2, [r3]	@ zero_extendqisi2
  81 0018 02F0F702 		and	r2, r2, #247
  82 001c 1A70     		strb	r2, [r3]
  67:.\Generated_Source\PSoC5/DAC_PM.c ****             DAC_Data = DAC_backup.data_value;
  83              		.loc 1 67 0
  84 001e 4278     		ldrb	r2, [r0, #1]	@ zero_extendqisi2
  85 0020 0A70     		strb	r2, [r1]
  68:.\Generated_Source\PSoC5/DAC_PM.c ****             DAC_Strobe |= DAC_STRB_EN;
  86              		.loc 1 68 0
  87 0022 1A78     		ldrb	r2, [r3]	@ zero_extendqisi2
  88 0024 42F00802 		orr	r2, r2, #8
  89 0028 1A70     		strb	r2, [r3]
  90 002a 7047     		bx	lr
  91              	.L7:
  92              	.LBE5:
  93              	.LBE4:
  69:.\Generated_Source\PSoC5/DAC_PM.c ****         }
  70:.\Generated_Source\PSoC5/DAC_PM.c ****         else
  71:.\Generated_Source\PSoC5/DAC_PM.c ****         {
  72:.\Generated_Source\PSoC5/DAC_PM.c ****             DAC_Data = DAC_backup.data_value;
  94              		.loc 1 72 0
  95 002c 4378     		ldrb	r3, [r0, #1]	@ zero_extendqisi2
  96 002e 0B70     		strb	r3, [r1]
  97              	.L5:
  98 0030 7047     		bx	lr
  99              	.L10:
ARM GAS  C:\Users\SUZUKI~1\AppData\Local\Temp\ccSEgKfM.s 			page 4


 100 0032 00BF     		.align	2
 101              	.L9:
 102 0034 21580040 		.word	1073764385
 103 0038 875A0040 		.word	1073764999
 104 003c 00000000 		.word	.LANCHOR0
 105 0040 805B0040 		.word	1073765248
 106              		.cfi_endproc
 107              	.LFE1:
 108              		.size	DAC_RestoreConfig, .-DAC_RestoreConfig
 109              		.section	.text.DAC_Sleep,"ax",%progbits
 110              		.align	1
 111              		.global	DAC_Sleep
 112              		.thumb
 113              		.thumb_func
 114              		.type	DAC_Sleep, %function
 115              	DAC_Sleep:
 116              	.LFB2:
  73:.\Generated_Source\PSoC5/DAC_PM.c ****         }
  74:.\Generated_Source\PSoC5/DAC_PM.c ****     }
  75:.\Generated_Source\PSoC5/DAC_PM.c **** }
  76:.\Generated_Source\PSoC5/DAC_PM.c **** 
  77:.\Generated_Source\PSoC5/DAC_PM.c **** 
  78:.\Generated_Source\PSoC5/DAC_PM.c **** /*******************************************************************************
  79:.\Generated_Source\PSoC5/DAC_PM.c **** * Function Name: DAC_Sleep
  80:.\Generated_Source\PSoC5/DAC_PM.c **** ********************************************************************************
  81:.\Generated_Source\PSoC5/DAC_PM.c **** * Summary:
  82:.\Generated_Source\PSoC5/DAC_PM.c **** *  Stop and Save the user configuration
  83:.\Generated_Source\PSoC5/DAC_PM.c **** *
  84:.\Generated_Source\PSoC5/DAC_PM.c **** * Parameters:  
  85:.\Generated_Source\PSoC5/DAC_PM.c **** *  void:  
  86:.\Generated_Source\PSoC5/DAC_PM.c **** *
  87:.\Generated_Source\PSoC5/DAC_PM.c **** * Return: 
  88:.\Generated_Source\PSoC5/DAC_PM.c **** *  void
  89:.\Generated_Source\PSoC5/DAC_PM.c **** *
  90:.\Generated_Source\PSoC5/DAC_PM.c **** * Global variables:
  91:.\Generated_Source\PSoC5/DAC_PM.c **** *  DAC_backup.enableState:  Is modified depending on the enable 
  92:.\Generated_Source\PSoC5/DAC_PM.c **** *  state  of the block before entering sleep mode.
  93:.\Generated_Source\PSoC5/DAC_PM.c **** *
  94:.\Generated_Source\PSoC5/DAC_PM.c **** *******************************************************************************/
  95:.\Generated_Source\PSoC5/DAC_PM.c **** void DAC_Sleep(void) 
  96:.\Generated_Source\PSoC5/DAC_PM.c **** {
 117              		.loc 1 96 0
 118              		.cfi_startproc
 119              		@ args = 0, pretend = 0, frame = 0
 120              		@ frame_needed = 0, uses_anonymous_args = 0
 121 0000 08B5     		push	{r3, lr}
 122              		.cfi_def_cfa_offset 8
 123              		.cfi_offset 3, -8
 124              		.cfi_offset 14, -4
  97:.\Generated_Source\PSoC5/DAC_PM.c ****     /* Save VDAC8's enable state */    
  98:.\Generated_Source\PSoC5/DAC_PM.c ****     if(DAC_ACT_PWR_EN == (DAC_PWRMGR & DAC_ACT_PWR_EN))
 125              		.loc 1 98 0
 126 0002 074B     		ldr	r3, .L14
 127 0004 074A     		ldr	r2, .L14+4
 128 0006 1B78     		ldrb	r3, [r3]	@ zero_extendqisi2
 129 0008 13F00103 		ands	r3, r3, #1
  99:.\Generated_Source\PSoC5/DAC_PM.c ****     {
ARM GAS  C:\Users\SUZUKI~1\AppData\Local\Temp\ccSEgKfM.s 			page 5


 100:.\Generated_Source\PSoC5/DAC_PM.c ****         /* VDAC8 is enabled */
 101:.\Generated_Source\PSoC5/DAC_PM.c ****         DAC_backup.enableState = 1u;
 130              		.loc 1 101 0
 131 000c 18BF     		it	ne
 132 000e 0123     		movne	r3, #1
 102:.\Generated_Source\PSoC5/DAC_PM.c ****     }
 103:.\Generated_Source\PSoC5/DAC_PM.c ****     else
 104:.\Generated_Source\PSoC5/DAC_PM.c ****     {
 105:.\Generated_Source\PSoC5/DAC_PM.c ****         /* VDAC8 is disabled */
 106:.\Generated_Source\PSoC5/DAC_PM.c ****         DAC_backup.enableState = 0u;
 133              		.loc 1 106 0
 134 0010 1370     		strb	r3, [r2]
 107:.\Generated_Source\PSoC5/DAC_PM.c ****     }
 108:.\Generated_Source\PSoC5/DAC_PM.c ****     
 109:.\Generated_Source\PSoC5/DAC_PM.c ****     DAC_Stop();
 135              		.loc 1 109 0
 136 0012 FFF7FEFF 		bl	DAC_Stop
 137              	.LVL0:
 110:.\Generated_Source\PSoC5/DAC_PM.c ****     DAC_SaveConfig();
 111:.\Generated_Source\PSoC5/DAC_PM.c **** }
 138              		.loc 1 111 0
 139 0016 BDE80840 		pop	{r3, lr}
 140              		.cfi_restore 14
 141              		.cfi_restore 3
 142              		.cfi_def_cfa_offset 0
 110:.\Generated_Source\PSoC5/DAC_PM.c ****     DAC_SaveConfig();
 143              		.loc 1 110 0
 144 001a FFF7FEBF 		b	DAC_SaveConfig
 145              	.LVL1:
 146              	.L15:
 147 001e 00BF     		.align	2
 148              	.L14:
 149 0020 A8430040 		.word	1073759144
 150 0024 00000000 		.word	.LANCHOR0
 151              		.cfi_endproc
 152              	.LFE2:
 153              		.size	DAC_Sleep, .-DAC_Sleep
 154              		.section	.text.DAC_Wakeup,"ax",%progbits
 155              		.align	1
 156              		.global	DAC_Wakeup
 157              		.thumb
 158              		.thumb_func
 159              		.type	DAC_Wakeup, %function
 160              	DAC_Wakeup:
 161              	.LFB3:
 112:.\Generated_Source\PSoC5/DAC_PM.c **** 
 113:.\Generated_Source\PSoC5/DAC_PM.c **** 
 114:.\Generated_Source\PSoC5/DAC_PM.c **** /*******************************************************************************
 115:.\Generated_Source\PSoC5/DAC_PM.c **** * Function Name: DAC_Wakeup
 116:.\Generated_Source\PSoC5/DAC_PM.c **** ********************************************************************************
 117:.\Generated_Source\PSoC5/DAC_PM.c **** *
 118:.\Generated_Source\PSoC5/DAC_PM.c **** * Summary:
 119:.\Generated_Source\PSoC5/DAC_PM.c **** *  Restores and enables the user configuration
 120:.\Generated_Source\PSoC5/DAC_PM.c **** *  
 121:.\Generated_Source\PSoC5/DAC_PM.c **** * Parameters:  
 122:.\Generated_Source\PSoC5/DAC_PM.c **** *  void
 123:.\Generated_Source\PSoC5/DAC_PM.c **** *
ARM GAS  C:\Users\SUZUKI~1\AppData\Local\Temp\ccSEgKfM.s 			page 6


 124:.\Generated_Source\PSoC5/DAC_PM.c **** * Return: 
 125:.\Generated_Source\PSoC5/DAC_PM.c **** *  void
 126:.\Generated_Source\PSoC5/DAC_PM.c **** *
 127:.\Generated_Source\PSoC5/DAC_PM.c **** * Global variables:
 128:.\Generated_Source\PSoC5/DAC_PM.c **** *  DAC_backup.enableState:  Is used to restore the enable state of 
 129:.\Generated_Source\PSoC5/DAC_PM.c **** *  block on wakeup from sleep mode.
 130:.\Generated_Source\PSoC5/DAC_PM.c **** *
 131:.\Generated_Source\PSoC5/DAC_PM.c **** *******************************************************************************/
 132:.\Generated_Source\PSoC5/DAC_PM.c **** void DAC_Wakeup(void) 
 133:.\Generated_Source\PSoC5/DAC_PM.c **** {
 162              		.loc 1 133 0
 163              		.cfi_startproc
 164              		@ args = 0, pretend = 0, frame = 0
 165              		@ frame_needed = 0, uses_anonymous_args = 0
 166 0000 08B5     		push	{r3, lr}
 167              		.cfi_def_cfa_offset 8
 168              		.cfi_offset 3, -8
 169              		.cfi_offset 14, -4
 134:.\Generated_Source\PSoC5/DAC_PM.c ****     DAC_RestoreConfig();
 170              		.loc 1 134 0
 171 0002 FFF7FEFF 		bl	DAC_RestoreConfig
 172              	.LVL2:
 135:.\Generated_Source\PSoC5/DAC_PM.c ****     
 136:.\Generated_Source\PSoC5/DAC_PM.c ****     if(DAC_backup.enableState == 1u)
 173              		.loc 1 136 0
 174 0006 064B     		ldr	r3, .L18
 175 0008 1B78     		ldrb	r3, [r3]	@ zero_extendqisi2
 176 000a 012B     		cmp	r3, #1
 177 000c 07D1     		bne	.L16
 137:.\Generated_Source\PSoC5/DAC_PM.c ****     {
 138:.\Generated_Source\PSoC5/DAC_PM.c ****         /* Enable VDAC8's operation */
 139:.\Generated_Source\PSoC5/DAC_PM.c ****         DAC_Enable();
 178              		.loc 1 139 0
 179 000e FFF7FEFF 		bl	DAC_Enable
 180              	.LVL3:
 140:.\Generated_Source\PSoC5/DAC_PM.c **** 
 141:.\Generated_Source\PSoC5/DAC_PM.c ****         /* Restore the data register */
 142:.\Generated_Source\PSoC5/DAC_PM.c ****         DAC_SetValue(DAC_Data);
 181              		.loc 1 142 0
 182 0012 044B     		ldr	r3, .L18+4
 183 0014 1878     		ldrb	r0, [r3]	@ zero_extendqisi2
 143:.\Generated_Source\PSoC5/DAC_PM.c ****     } /* Do nothing if VDAC8 was disabled before */    
 144:.\Generated_Source\PSoC5/DAC_PM.c **** }
 184              		.loc 1 144 0
 185 0016 BDE80840 		pop	{r3, lr}
 186              		.cfi_remember_state
 187              		.cfi_restore 14
 188              		.cfi_restore 3
 189              		.cfi_def_cfa_offset 0
 142:.\Generated_Source\PSoC5/DAC_PM.c ****     } /* Do nothing if VDAC8 was disabled before */    
 190              		.loc 1 142 0
 191 001a FFF7FEBF 		b	DAC_SetValue
 192              	.LVL4:
 193              	.L16:
 194              		.cfi_restore_state
 195 001e 08BD     		pop	{r3, pc}
 196              	.L19:
ARM GAS  C:\Users\SUZUKI~1\AppData\Local\Temp\ccSEgKfM.s 			page 7


 197              		.align	2
 198              	.L18:
 199 0020 00000000 		.word	.LANCHOR0
 200 0024 805B0040 		.word	1073765248
 201              		.cfi_endproc
 202              	.LFE3:
 203              		.size	DAC_Wakeup, .-DAC_Wakeup
 204              		.bss
 205              		.set	.LANCHOR0,. + 0
 206              		.type	DAC_backup, %object
 207              		.size	DAC_backup, 2
 208              	DAC_backup:
 209 0000 0000     		.space	2
 210              		.text
 211              	.Letext0:
 212              		.file 2 ".\\Generated_Source\\PSoC5\\cytypes.h"
 213              		.file 3 ".\\Generated_Source\\PSoC5\\DAC.h"