ARM GAS  C:\Users\SUZUKI~1\AppData\Local\Temp\ccz4CXGW.s 			page 1


   1              		.syntax unified
   2              		.cpu cortex-m3
   3              		.fpu softvfp
   4              		.eabi_attribute 20, 1
   5              		.eabi_attribute 21, 1
   6              		.eabi_attribute 23, 3
   7              		.eabi_attribute 24, 1
   8              		.eabi_attribute 25, 1
   9              		.eabi_attribute 26, 1
  10              		.eabi_attribute 30, 4
  11              		.eabi_attribute 34, 1
  12              		.eabi_attribute 18, 4
  13              		.thumb
  14              		.file	"PWM_PM.c"
  15              		.text
  16              	.Ltext0:
  17              		.cfi_sections	.debug_frame
  18              		.section	.text.PWM_SaveConfig,"ax",%progbits
  19              		.align	1
  20              		.global	PWM_SaveConfig
  21              		.thumb
  22              		.thumb_func
  23              		.type	PWM_SaveConfig, %function
  24              	PWM_SaveConfig:
  25              	.LFB0:
  26              		.file 1 ".\\Generated_Source\\PSoC5\\PWM_PM.c"
   1:.\Generated_Source\PSoC5/PWM_PM.c **** /*******************************************************************************
   2:.\Generated_Source\PSoC5/PWM_PM.c **** * File Name: PWM_PM.c
   3:.\Generated_Source\PSoC5/PWM_PM.c **** * Version 3.30
   4:.\Generated_Source\PSoC5/PWM_PM.c **** *
   5:.\Generated_Source\PSoC5/PWM_PM.c **** * Description:
   6:.\Generated_Source\PSoC5/PWM_PM.c **** *  This file provides the power management source code to API for the
   7:.\Generated_Source\PSoC5/PWM_PM.c **** *  PWM.
   8:.\Generated_Source\PSoC5/PWM_PM.c **** *
   9:.\Generated_Source\PSoC5/PWM_PM.c **** * Note:
  10:.\Generated_Source\PSoC5/PWM_PM.c **** *
  11:.\Generated_Source\PSoC5/PWM_PM.c **** ********************************************************************************
  12:.\Generated_Source\PSoC5/PWM_PM.c **** * Copyright 2008-2014, Cypress Semiconductor Corporation.  All rights reserved.
  13:.\Generated_Source\PSoC5/PWM_PM.c **** * You may use this file only in accordance with the license, terms, conditions,
  14:.\Generated_Source\PSoC5/PWM_PM.c **** * disclaimers, and limitations in the end user license agreement accompanying
  15:.\Generated_Source\PSoC5/PWM_PM.c **** * the software package with which this file was provided.
  16:.\Generated_Source\PSoC5/PWM_PM.c **** *******************************************************************************/
  17:.\Generated_Source\PSoC5/PWM_PM.c **** 
  18:.\Generated_Source\PSoC5/PWM_PM.c **** #include "PWM.h"
  19:.\Generated_Source\PSoC5/PWM_PM.c **** 
  20:.\Generated_Source\PSoC5/PWM_PM.c **** static PWM_backupStruct PWM_backup;
  21:.\Generated_Source\PSoC5/PWM_PM.c **** 
  22:.\Generated_Source\PSoC5/PWM_PM.c **** 
  23:.\Generated_Source\PSoC5/PWM_PM.c **** /*******************************************************************************
  24:.\Generated_Source\PSoC5/PWM_PM.c **** * Function Name: PWM_SaveConfig
  25:.\Generated_Source\PSoC5/PWM_PM.c **** ********************************************************************************
  26:.\Generated_Source\PSoC5/PWM_PM.c **** *
  27:.\Generated_Source\PSoC5/PWM_PM.c **** * Summary:
  28:.\Generated_Source\PSoC5/PWM_PM.c **** *  Saves the current user configuration of the component.
  29:.\Generated_Source\PSoC5/PWM_PM.c **** *
  30:.\Generated_Source\PSoC5/PWM_PM.c **** * Parameters:
  31:.\Generated_Source\PSoC5/PWM_PM.c **** *  None
ARM GAS  C:\Users\SUZUKI~1\AppData\Local\Temp\ccz4CXGW.s 			page 2


  32:.\Generated_Source\PSoC5/PWM_PM.c **** *
  33:.\Generated_Source\PSoC5/PWM_PM.c **** * Return:
  34:.\Generated_Source\PSoC5/PWM_PM.c **** *  None
  35:.\Generated_Source\PSoC5/PWM_PM.c **** *
  36:.\Generated_Source\PSoC5/PWM_PM.c **** * Global variables:
  37:.\Generated_Source\PSoC5/PWM_PM.c **** *  PWM_backup:  Variables of this global structure are modified to
  38:.\Generated_Source\PSoC5/PWM_PM.c **** *  store the values of non retention configuration registers when Sleep() API is
  39:.\Generated_Source\PSoC5/PWM_PM.c **** *  called.
  40:.\Generated_Source\PSoC5/PWM_PM.c **** *
  41:.\Generated_Source\PSoC5/PWM_PM.c **** *******************************************************************************/
  42:.\Generated_Source\PSoC5/PWM_PM.c **** void PWM_SaveConfig(void) 
  43:.\Generated_Source\PSoC5/PWM_PM.c **** {
  27              		.loc 1 43 0
  28              		.cfi_startproc
  29              		@ args = 0, pretend = 0, frame = 0
  30              		@ frame_needed = 0, uses_anonymous_args = 0
  31 0000 10B5     		push	{r4, lr}
  32              		.cfi_def_cfa_offset 8
  33              		.cfi_offset 4, -8
  34              		.cfi_offset 14, -4
  44:.\Generated_Source\PSoC5/PWM_PM.c **** 
  45:.\Generated_Source\PSoC5/PWM_PM.c ****     #if(!PWM_UsingFixedFunction)
  46:.\Generated_Source\PSoC5/PWM_PM.c ****         #if(!PWM_PWMModeIsCenterAligned)
  47:.\Generated_Source\PSoC5/PWM_PM.c ****             PWM_backup.PWMPeriod = PWM_ReadPeriod();
  35              		.loc 1 47 0
  36 0002 FFF7FEFF 		bl	PWM_ReadPeriod
  37              	.LVL0:
  38 0006 044C     		ldr	r4, .L2
  39 0008 A070     		strb	r0, [r4, #2]
  48:.\Generated_Source\PSoC5/PWM_PM.c ****         #endif /* (!PWM_PWMModeIsCenterAligned) */
  49:.\Generated_Source\PSoC5/PWM_PM.c ****         PWM_backup.PWMUdb = PWM_ReadCounter();
  40              		.loc 1 49 0
  41 000a FFF7FEFF 		bl	PWM_ReadCounter
  42              	.LVL1:
  43 000e 6070     		strb	r0, [r4, #1]
  50:.\Generated_Source\PSoC5/PWM_PM.c ****         #if (PWM_UseStatus)
  51:.\Generated_Source\PSoC5/PWM_PM.c ****             PWM_backup.InterruptMaskValue = PWM_STATUS_MASK;
  52:.\Generated_Source\PSoC5/PWM_PM.c ****         #endif /* (PWM_UseStatus) */
  53:.\Generated_Source\PSoC5/PWM_PM.c **** 
  54:.\Generated_Source\PSoC5/PWM_PM.c ****         #if(PWM_DeadBandMode == PWM__B_PWM__DBM_256_CLOCKS || \
  55:.\Generated_Source\PSoC5/PWM_PM.c ****             PWM_DeadBandMode == PWM__B_PWM__DBM_2_4_CLOCKS)
  56:.\Generated_Source\PSoC5/PWM_PM.c ****             PWM_backup.PWMdeadBandValue = PWM_ReadDeadTime();
  57:.\Generated_Source\PSoC5/PWM_PM.c ****         #endif /*  deadband count is either 2-4 clocks or 256 clocks */
  58:.\Generated_Source\PSoC5/PWM_PM.c **** 
  59:.\Generated_Source\PSoC5/PWM_PM.c ****         #if(PWM_KillModeMinTime)
  60:.\Generated_Source\PSoC5/PWM_PM.c ****              PWM_backup.PWMKillCounterPeriod = PWM_ReadKillTime();
  61:.\Generated_Source\PSoC5/PWM_PM.c ****         #endif /* (PWM_KillModeMinTime) */
  62:.\Generated_Source\PSoC5/PWM_PM.c **** 
  63:.\Generated_Source\PSoC5/PWM_PM.c ****         #if(PWM_UseControl)
  64:.\Generated_Source\PSoC5/PWM_PM.c ****             PWM_backup.PWMControlRegister = PWM_ReadControlRegister();
  44              		.loc 1 64 0
  45 0010 FFF7FEFF 		bl	PWM_ReadControlRegister
  46              	.LVL2:
  47 0014 E070     		strb	r0, [r4, #3]
  48 0016 10BD     		pop	{r4, pc}
  49              	.L3:
  50              		.align	2
ARM GAS  C:\Users\SUZUKI~1\AppData\Local\Temp\ccz4CXGW.s 			page 3


  51              	.L2:
  52 0018 00000000 		.word	.LANCHOR0
  53              		.cfi_endproc
  54              	.LFE0:
  55              		.size	PWM_SaveConfig, .-PWM_SaveConfig
  56              		.section	.text.PWM_RestoreConfig,"ax",%progbits
  57              		.align	1
  58              		.global	PWM_RestoreConfig
  59              		.thumb
  60              		.thumb_func
  61              		.type	PWM_RestoreConfig, %function
  62              	PWM_RestoreConfig:
  63              	.LFB1:
  65:.\Generated_Source\PSoC5/PWM_PM.c ****         #endif /* (PWM_UseControl) */
  66:.\Generated_Source\PSoC5/PWM_PM.c ****     #endif  /* (!PWM_UsingFixedFunction) */
  67:.\Generated_Source\PSoC5/PWM_PM.c **** }
  68:.\Generated_Source\PSoC5/PWM_PM.c **** 
  69:.\Generated_Source\PSoC5/PWM_PM.c **** 
  70:.\Generated_Source\PSoC5/PWM_PM.c **** /*******************************************************************************
  71:.\Generated_Source\PSoC5/PWM_PM.c **** * Function Name: PWM_RestoreConfig
  72:.\Generated_Source\PSoC5/PWM_PM.c **** ********************************************************************************
  73:.\Generated_Source\PSoC5/PWM_PM.c **** *
  74:.\Generated_Source\PSoC5/PWM_PM.c **** * Summary:
  75:.\Generated_Source\PSoC5/PWM_PM.c **** *  Restores the current user configuration of the component.
  76:.\Generated_Source\PSoC5/PWM_PM.c **** *
  77:.\Generated_Source\PSoC5/PWM_PM.c **** * Parameters:
  78:.\Generated_Source\PSoC5/PWM_PM.c **** *  None
  79:.\Generated_Source\PSoC5/PWM_PM.c **** *
  80:.\Generated_Source\PSoC5/PWM_PM.c **** * Return:
  81:.\Generated_Source\PSoC5/PWM_PM.c **** *  None
  82:.\Generated_Source\PSoC5/PWM_PM.c **** *
  83:.\Generated_Source\PSoC5/PWM_PM.c **** * Global variables:
  84:.\Generated_Source\PSoC5/PWM_PM.c **** *  PWM_backup:  Variables of this global structure are used to
  85:.\Generated_Source\PSoC5/PWM_PM.c **** *  restore the values of non retention registers on wakeup from sleep mode.
  86:.\Generated_Source\PSoC5/PWM_PM.c **** *
  87:.\Generated_Source\PSoC5/PWM_PM.c **** *******************************************************************************/
  88:.\Generated_Source\PSoC5/PWM_PM.c **** void PWM_RestoreConfig(void) 
  89:.\Generated_Source\PSoC5/PWM_PM.c **** {
  64              		.loc 1 89 0
  65              		.cfi_startproc
  66              		@ args = 0, pretend = 0, frame = 0
  67              		@ frame_needed = 0, uses_anonymous_args = 0
  68 0000 10B5     		push	{r4, lr}
  69              		.cfi_def_cfa_offset 8
  70              		.cfi_offset 4, -8
  71              		.cfi_offset 14, -4
  90:.\Generated_Source\PSoC5/PWM_PM.c ****         #if(!PWM_UsingFixedFunction)
  91:.\Generated_Source\PSoC5/PWM_PM.c ****             #if(!PWM_PWMModeIsCenterAligned)
  92:.\Generated_Source\PSoC5/PWM_PM.c ****                 PWM_WritePeriod(PWM_backup.PWMPeriod);
  72              		.loc 1 92 0
  73 0002 064C     		ldr	r4, .L5
  74 0004 A078     		ldrb	r0, [r4, #2]	@ zero_extendqisi2
  75 0006 FFF7FEFF 		bl	PWM_WritePeriod
  76              	.LVL3:
  93:.\Generated_Source\PSoC5/PWM_PM.c ****             #endif /* (!PWM_PWMModeIsCenterAligned) */
  94:.\Generated_Source\PSoC5/PWM_PM.c **** 
  95:.\Generated_Source\PSoC5/PWM_PM.c ****             PWM_WriteCounter(PWM_backup.PWMUdb);
ARM GAS  C:\Users\SUZUKI~1\AppData\Local\Temp\ccz4CXGW.s 			page 4


  77              		.loc 1 95 0
  78 000a 6078     		ldrb	r0, [r4, #1]	@ zero_extendqisi2
  79 000c FFF7FEFF 		bl	PWM_WriteCounter
  80              	.LVL4:
  96:.\Generated_Source\PSoC5/PWM_PM.c **** 
  97:.\Generated_Source\PSoC5/PWM_PM.c ****             #if (PWM_UseStatus)
  98:.\Generated_Source\PSoC5/PWM_PM.c ****                 PWM_STATUS_MASK = PWM_backup.InterruptMaskValue;
  99:.\Generated_Source\PSoC5/PWM_PM.c ****             #endif /* (PWM_UseStatus) */
 100:.\Generated_Source\PSoC5/PWM_PM.c **** 
 101:.\Generated_Source\PSoC5/PWM_PM.c ****             #if(PWM_DeadBandMode == PWM__B_PWM__DBM_256_CLOCKS || \
 102:.\Generated_Source\PSoC5/PWM_PM.c ****                 PWM_DeadBandMode == PWM__B_PWM__DBM_2_4_CLOCKS)
 103:.\Generated_Source\PSoC5/PWM_PM.c ****                 PWM_WriteDeadTime(PWM_backup.PWMdeadBandValue);
 104:.\Generated_Source\PSoC5/PWM_PM.c ****             #endif /* deadband count is either 2-4 clocks or 256 clocks */
 105:.\Generated_Source\PSoC5/PWM_PM.c **** 
 106:.\Generated_Source\PSoC5/PWM_PM.c ****             #if(PWM_KillModeMinTime)
 107:.\Generated_Source\PSoC5/PWM_PM.c ****                 PWM_WriteKillTime(PWM_backup.PWMKillCounterPeriod);
 108:.\Generated_Source\PSoC5/PWM_PM.c ****             #endif /* (PWM_KillModeMinTime) */
 109:.\Generated_Source\PSoC5/PWM_PM.c **** 
 110:.\Generated_Source\PSoC5/PWM_PM.c ****             #if(PWM_UseControl)
 111:.\Generated_Source\PSoC5/PWM_PM.c ****                 PWM_WriteControlRegister(PWM_backup.PWMControlRegister);
  81              		.loc 1 111 0
  82 0010 E078     		ldrb	r0, [r4, #3]	@ zero_extendqisi2
 112:.\Generated_Source\PSoC5/PWM_PM.c ****             #endif /* (PWM_UseControl) */
 113:.\Generated_Source\PSoC5/PWM_PM.c ****         #endif  /* (!PWM_UsingFixedFunction) */
 114:.\Generated_Source\PSoC5/PWM_PM.c ****     }
  83              		.loc 1 114 0
  84 0012 BDE81040 		pop	{r4, lr}
  85              		.cfi_restore 14
  86              		.cfi_restore 4
  87              		.cfi_def_cfa_offset 0
 111:.\Generated_Source\PSoC5/PWM_PM.c ****             #endif /* (PWM_UseControl) */
  88              		.loc 1 111 0
  89 0016 FFF7FEBF 		b	PWM_WriteControlRegister
  90              	.LVL5:
  91              	.L6:
  92 001a 00BF     		.align	2
  93              	.L5:
  94 001c 00000000 		.word	.LANCHOR0
  95              		.cfi_endproc
  96              	.LFE1:
  97              		.size	PWM_RestoreConfig, .-PWM_RestoreConfig
  98              		.section	.text.PWM_Sleep,"ax",%progbits
  99              		.align	1
 100              		.global	PWM_Sleep
 101              		.thumb
 102              		.thumb_func
 103              		.type	PWM_Sleep, %function
 104              	PWM_Sleep:
 105              	.LFB2:
 115:.\Generated_Source\PSoC5/PWM_PM.c **** 
 116:.\Generated_Source\PSoC5/PWM_PM.c **** 
 117:.\Generated_Source\PSoC5/PWM_PM.c **** /*******************************************************************************
 118:.\Generated_Source\PSoC5/PWM_PM.c **** * Function Name: PWM_Sleep
 119:.\Generated_Source\PSoC5/PWM_PM.c **** ********************************************************************************
 120:.\Generated_Source\PSoC5/PWM_PM.c **** *
 121:.\Generated_Source\PSoC5/PWM_PM.c **** * Summary:
 122:.\Generated_Source\PSoC5/PWM_PM.c **** *  Disables block's operation and saves the user configuration. Should be called
ARM GAS  C:\Users\SUZUKI~1\AppData\Local\Temp\ccz4CXGW.s 			page 5


 123:.\Generated_Source\PSoC5/PWM_PM.c **** *  just prior to entering sleep.
 124:.\Generated_Source\PSoC5/PWM_PM.c **** *
 125:.\Generated_Source\PSoC5/PWM_PM.c **** * Parameters:
 126:.\Generated_Source\PSoC5/PWM_PM.c **** *  None
 127:.\Generated_Source\PSoC5/PWM_PM.c **** *
 128:.\Generated_Source\PSoC5/PWM_PM.c **** * Return:
 129:.\Generated_Source\PSoC5/PWM_PM.c **** *  None
 130:.\Generated_Source\PSoC5/PWM_PM.c **** *
 131:.\Generated_Source\PSoC5/PWM_PM.c **** * Global variables:
 132:.\Generated_Source\PSoC5/PWM_PM.c **** *  PWM_backup.PWMEnableState:  Is modified depending on the enable
 133:.\Generated_Source\PSoC5/PWM_PM.c **** *  state of the block before entering sleep mode.
 134:.\Generated_Source\PSoC5/PWM_PM.c **** *
 135:.\Generated_Source\PSoC5/PWM_PM.c **** *******************************************************************************/
 136:.\Generated_Source\PSoC5/PWM_PM.c **** void PWM_Sleep(void) 
 137:.\Generated_Source\PSoC5/PWM_PM.c **** {
 106              		.loc 1 137 0
 107              		.cfi_startproc
 108              		@ args = 0, pretend = 0, frame = 0
 109              		@ frame_needed = 0, uses_anonymous_args = 0
 110 0000 08B5     		push	{r3, lr}
 111              		.cfi_def_cfa_offset 8
 112              		.cfi_offset 3, -8
 113              		.cfi_offset 14, -4
 138:.\Generated_Source\PSoC5/PWM_PM.c ****     #if(PWM_UseControl)
 139:.\Generated_Source\PSoC5/PWM_PM.c ****         if(PWM_CTRL_ENABLE == (PWM_CONTROL & PWM_CTRL_ENABLE))
 114              		.loc 1 139 0
 115 0002 074B     		ldr	r3, .L11
 116 0004 1B78     		ldrb	r3, [r3]	@ zero_extendqisi2
 117 0006 13F0800F 		tst	r3, #128
 118 000a 064B     		ldr	r3, .L11+4
 140:.\Generated_Source\PSoC5/PWM_PM.c ****         {
 141:.\Generated_Source\PSoC5/PWM_PM.c ****             /*Component is enabled */
 142:.\Generated_Source\PSoC5/PWM_PM.c ****             PWM_backup.PWMEnableState = 1u;
 119              		.loc 1 142 0
 120 000c 14BF     		ite	ne
 121 000e 0122     		movne	r2, #1
 143:.\Generated_Source\PSoC5/PWM_PM.c ****         }
 144:.\Generated_Source\PSoC5/PWM_PM.c ****         else
 145:.\Generated_Source\PSoC5/PWM_PM.c ****         {
 146:.\Generated_Source\PSoC5/PWM_PM.c ****             /* Component is disabled */
 147:.\Generated_Source\PSoC5/PWM_PM.c ****             PWM_backup.PWMEnableState = 0u;
 122              		.loc 1 147 0
 123 0010 0022     		moveq	r2, #0
 124 0012 1A70     		strb	r2, [r3]
 148:.\Generated_Source\PSoC5/PWM_PM.c ****         }
 149:.\Generated_Source\PSoC5/PWM_PM.c ****     #endif /* (PWM_UseControl) */
 150:.\Generated_Source\PSoC5/PWM_PM.c **** 
 151:.\Generated_Source\PSoC5/PWM_PM.c ****     /* Stop component */
 152:.\Generated_Source\PSoC5/PWM_PM.c ****     PWM_Stop();
 125              		.loc 1 152 0
 126 0014 FFF7FEFF 		bl	PWM_Stop
 127              	.LVL6:
 153:.\Generated_Source\PSoC5/PWM_PM.c **** 
 154:.\Generated_Source\PSoC5/PWM_PM.c ****     /* Save registers configuration */
 155:.\Generated_Source\PSoC5/PWM_PM.c ****     PWM_SaveConfig();
 156:.\Generated_Source\PSoC5/PWM_PM.c **** }
 128              		.loc 1 156 0
ARM GAS  C:\Users\SUZUKI~1\AppData\Local\Temp\ccz4CXGW.s 			page 6


 129 0018 BDE80840 		pop	{r3, lr}
 130              		.cfi_restore 14
 131              		.cfi_restore 3
 132              		.cfi_def_cfa_offset 0
 155:.\Generated_Source\PSoC5/PWM_PM.c **** }
 133              		.loc 1 155 0
 134 001c FFF7FEBF 		b	PWM_SaveConfig
 135              	.LVL7:
 136              	.L12:
 137              		.align	2
 138              	.L11:
 139 0020 7A650040 		.word	1073767802
 140 0024 00000000 		.word	.LANCHOR0
 141              		.cfi_endproc
 142              	.LFE2:
 143              		.size	PWM_Sleep, .-PWM_Sleep
 144              		.section	.text.PWM_Wakeup,"ax",%progbits
 145              		.align	1
 146              		.global	PWM_Wakeup
 147              		.thumb
 148              		.thumb_func
 149              		.type	PWM_Wakeup, %function
 150              	PWM_Wakeup:
 151              	.LFB3:
 157:.\Generated_Source\PSoC5/PWM_PM.c **** 
 158:.\Generated_Source\PSoC5/PWM_PM.c **** 
 159:.\Generated_Source\PSoC5/PWM_PM.c **** /*******************************************************************************
 160:.\Generated_Source\PSoC5/PWM_PM.c **** * Function Name: PWM_Wakeup
 161:.\Generated_Source\PSoC5/PWM_PM.c **** ********************************************************************************
 162:.\Generated_Source\PSoC5/PWM_PM.c **** *
 163:.\Generated_Source\PSoC5/PWM_PM.c **** * Summary:
 164:.\Generated_Source\PSoC5/PWM_PM.c **** *  Restores and enables the user configuration. Should be called just after
 165:.\Generated_Source\PSoC5/PWM_PM.c **** *  awaking from sleep.
 166:.\Generated_Source\PSoC5/PWM_PM.c **** *
 167:.\Generated_Source\PSoC5/PWM_PM.c **** * Parameters:
 168:.\Generated_Source\PSoC5/PWM_PM.c **** *  None
 169:.\Generated_Source\PSoC5/PWM_PM.c **** *
 170:.\Generated_Source\PSoC5/PWM_PM.c **** * Return:
 171:.\Generated_Source\PSoC5/PWM_PM.c **** *  None
 172:.\Generated_Source\PSoC5/PWM_PM.c **** *
 173:.\Generated_Source\PSoC5/PWM_PM.c **** * Global variables:
 174:.\Generated_Source\PSoC5/PWM_PM.c **** *  PWM_backup.pwmEnable:  Is used to restore the enable state of
 175:.\Generated_Source\PSoC5/PWM_PM.c **** *  block on wakeup from sleep mode.
 176:.\Generated_Source\PSoC5/PWM_PM.c **** *
 177:.\Generated_Source\PSoC5/PWM_PM.c **** *******************************************************************************/
 178:.\Generated_Source\PSoC5/PWM_PM.c **** void PWM_Wakeup(void) 
 179:.\Generated_Source\PSoC5/PWM_PM.c **** {
 152              		.loc 1 179 0
 153              		.cfi_startproc
 154              		@ args = 0, pretend = 0, frame = 0
 155              		@ frame_needed = 0, uses_anonymous_args = 0
 156 0000 08B5     		push	{r3, lr}
 157              		.cfi_def_cfa_offset 8
 158              		.cfi_offset 3, -8
 159              		.cfi_offset 14, -4
 180:.\Generated_Source\PSoC5/PWM_PM.c ****      /* Restore registers values */
 181:.\Generated_Source\PSoC5/PWM_PM.c ****     PWM_RestoreConfig();
ARM GAS  C:\Users\SUZUKI~1\AppData\Local\Temp\ccz4CXGW.s 			page 7


 160              		.loc 1 181 0
 161 0002 FFF7FEFF 		bl	PWM_RestoreConfig
 162              	.LVL8:
 182:.\Generated_Source\PSoC5/PWM_PM.c **** 
 183:.\Generated_Source\PSoC5/PWM_PM.c ****     if(PWM_backup.PWMEnableState != 0u)
 163              		.loc 1 183 0
 164 0006 044B     		ldr	r3, .L16
 165 0008 1B78     		ldrb	r3, [r3]	@ zero_extendqisi2
 166 000a 1BB1     		cbz	r3, .L13
 184:.\Generated_Source\PSoC5/PWM_PM.c ****     {
 185:.\Generated_Source\PSoC5/PWM_PM.c ****         /* Enable component's operation */
 186:.\Generated_Source\PSoC5/PWM_PM.c ****         PWM_Enable();
 187:.\Generated_Source\PSoC5/PWM_PM.c ****     } /* Do nothing if component's block was disabled before */
 188:.\Generated_Source\PSoC5/PWM_PM.c **** 
 189:.\Generated_Source\PSoC5/PWM_PM.c **** }
 167              		.loc 1 189 0
 168 000c BDE80840 		pop	{r3, lr}
 169              		.cfi_remember_state
 170              		.cfi_restore 14
 171              		.cfi_restore 3
 172              		.cfi_def_cfa_offset 0
 186:.\Generated_Source\PSoC5/PWM_PM.c ****     } /* Do nothing if component's block was disabled before */
 173              		.loc 1 186 0
 174 0010 FFF7FEBF 		b	PWM_Enable
 175              	.LVL9:
 176              	.L13:
 177              		.cfi_restore_state
 178 0014 08BD     		pop	{r3, pc}
 179              	.L17:
 180 0016 00BF     		.align	2
 181              	.L16:
 182 0018 00000000 		.word	.LANCHOR0
 183              		.cfi_endproc
 184              	.LFE3:
 185              		.size	PWM_Wakeup, .-PWM_Wakeup
 186              		.bss
 187              		.set	.LANCHOR0,. + 0
 188              		.type	PWM_backup, %object
 189              		.size	PWM_backup, 4
 190              	PWM_backup:
 191 0000 00000000 		.space	4
 192              		.text
 193              	.Letext0:
 194              		.file 2 ".\\Generated_Source\\PSoC5\\cytypes.h"
 195              		.file 3 ".\\Generated_Source\\PSoC5\\PWM.h"